
kernel.elf:     file format elf64-littleaarch64


Disassembly of section .text:

0000000040000000 <_main>:
    40000000:	d5381040 	mrs	x0, cpacr_el1
    40000004:	d2900001 	mov	x1, #0x8000                	// #32768
    40000008:	f2a00321 	movk	x1, #0x19, lsl #16
    4000000c:	aa010000 	orr	x0, x0, x1
    40000010:	d5181040 	msr	cpacr_el1, x0
    40000014:	5800427e 	ldr	x30, 40000860 <interrupt+0x60>
    40000018:	910003df 	mov	sp, x30
    4000001c:	940004a1 	bl	400012a0 <kmain>
    40000020:	14000000 	b	40000020 <_main+0x20>

0000000040000024 <enable_exceptions>:
    40000024:	58004221 	ldr	x1, 40000868 <interrupt+0x68>
    40000028:	d518c001 	msr	vbar_el1, x1
    4000002c:	d53e1100 	mrs	x0, scr_el3
    40000030:	b27d0000 	orr	x0, x0, #0x8
    40000034:	b27e0000 	orr	x0, x0, #0x4
    40000038:	b27f0000 	orr	x0, x0, #0x2
    4000003c:	d51e1100 	msr	scr_el3, x0
    40000040:	d50342ff 	msr	daifclr, #0x2
    40000044:	d65f03c0 	ret

0000000040000048 <exception_vector_table>:
    40000048:	140001ee 	b	40000800 <interrupt>
    4000004c:	d503201f 	nop
    40000050:	d503201f 	nop
    40000054:	d503201f 	nop
    40000058:	d503201f 	nop
    4000005c:	d503201f 	nop
    40000060:	d503201f 	nop
    40000064:	d503201f 	nop
    40000068:	d503201f 	nop
    4000006c:	d503201f 	nop
    40000070:	d503201f 	nop
    40000074:	d503201f 	nop
    40000078:	d503201f 	nop
    4000007c:	d503201f 	nop
    40000080:	140001e0 	b	40000800 <interrupt>
    40000084:	d503201f 	nop
    40000088:	d503201f 	nop
    4000008c:	d503201f 	nop
    40000090:	d503201f 	nop
    40000094:	d503201f 	nop
    40000098:	d503201f 	nop
    4000009c:	d503201f 	nop
    400000a0:	d503201f 	nop
    400000a4:	d503201f 	nop
    400000a8:	d503201f 	nop
    400000ac:	d503201f 	nop
    400000b0:	d503201f 	nop
    400000b4:	d503201f 	nop
    400000b8:	d503201f 	nop
    400000bc:	d503201f 	nop
    400000c0:	d503201f 	nop
    400000c4:	d503201f 	nop
    400000c8:	d503201f 	nop
    400000cc:	d503201f 	nop
    400000d0:	d503201f 	nop
    400000d4:	d503201f 	nop
    400000d8:	d503201f 	nop
    400000dc:	d503201f 	nop
    400000e0:	d503201f 	nop
    400000e4:	d503201f 	nop
    400000e8:	d503201f 	nop
    400000ec:	d503201f 	nop
    400000f0:	d503201f 	nop
    400000f4:	d503201f 	nop
    400000f8:	d503201f 	nop
    400000fc:	d503201f 	nop
    40000100:	140001c0 	b	40000800 <interrupt>
    40000104:	d503201f 	nop
    40000108:	d503201f 	nop
    4000010c:	d503201f 	nop
    40000110:	d503201f 	nop
    40000114:	d503201f 	nop
    40000118:	d503201f 	nop
    4000011c:	d503201f 	nop
    40000120:	d503201f 	nop
    40000124:	d503201f 	nop
    40000128:	d503201f 	nop
    4000012c:	d503201f 	nop
    40000130:	d503201f 	nop
    40000134:	d503201f 	nop
    40000138:	d503201f 	nop
    4000013c:	d503201f 	nop
    40000140:	d503201f 	nop
    40000144:	d503201f 	nop
    40000148:	d503201f 	nop
    4000014c:	d503201f 	nop
    40000150:	d503201f 	nop
    40000154:	d503201f 	nop
    40000158:	d503201f 	nop
    4000015c:	d503201f 	nop
    40000160:	d503201f 	nop
    40000164:	d503201f 	nop
    40000168:	d503201f 	nop
    4000016c:	d503201f 	nop
    40000170:	d503201f 	nop
    40000174:	d503201f 	nop
    40000178:	d503201f 	nop
    4000017c:	d503201f 	nop
    40000180:	140001a0 	b	40000800 <interrupt>
    40000184:	d503201f 	nop
    40000188:	d503201f 	nop
    4000018c:	d503201f 	nop
    40000190:	d503201f 	nop
    40000194:	d503201f 	nop
    40000198:	d503201f 	nop
    4000019c:	d503201f 	nop
    400001a0:	d503201f 	nop
    400001a4:	d503201f 	nop
    400001a8:	d503201f 	nop
    400001ac:	d503201f 	nop
    400001b0:	d503201f 	nop
    400001b4:	d503201f 	nop
    400001b8:	d503201f 	nop
    400001bc:	d503201f 	nop
    400001c0:	d503201f 	nop
    400001c4:	d503201f 	nop
    400001c8:	d503201f 	nop
    400001cc:	d503201f 	nop
    400001d0:	d503201f 	nop
    400001d4:	d503201f 	nop
    400001d8:	d503201f 	nop
    400001dc:	d503201f 	nop
    400001e0:	d503201f 	nop
    400001e4:	d503201f 	nop
    400001e8:	d503201f 	nop
    400001ec:	d503201f 	nop
    400001f0:	d503201f 	nop
    400001f4:	d503201f 	nop
    400001f8:	d503201f 	nop
    400001fc:	d503201f 	nop
    40000200:	14000180 	b	40000800 <interrupt>
    40000204:	d503201f 	nop
    40000208:	d503201f 	nop
    4000020c:	d503201f 	nop
    40000210:	d503201f 	nop
    40000214:	d503201f 	nop
    40000218:	d503201f 	nop
    4000021c:	d503201f 	nop
    40000220:	d503201f 	nop
    40000224:	d503201f 	nop
    40000228:	d503201f 	nop
    4000022c:	d503201f 	nop
    40000230:	d503201f 	nop
    40000234:	d503201f 	nop
    40000238:	d503201f 	nop
    4000023c:	d503201f 	nop
    40000240:	d503201f 	nop
    40000244:	d503201f 	nop
    40000248:	d503201f 	nop
    4000024c:	d503201f 	nop
    40000250:	d503201f 	nop
    40000254:	d503201f 	nop
    40000258:	d503201f 	nop
    4000025c:	d503201f 	nop
    40000260:	d503201f 	nop
    40000264:	d503201f 	nop
    40000268:	d503201f 	nop
    4000026c:	d503201f 	nop
    40000270:	d503201f 	nop
    40000274:	d503201f 	nop
    40000278:	d503201f 	nop
    4000027c:	d503201f 	nop
    40000280:	14000160 	b	40000800 <interrupt>
    40000284:	d503201f 	nop
    40000288:	d503201f 	nop
    4000028c:	d503201f 	nop
    40000290:	d503201f 	nop
    40000294:	d503201f 	nop
    40000298:	d503201f 	nop
    4000029c:	d503201f 	nop
    400002a0:	d503201f 	nop
    400002a4:	d503201f 	nop
    400002a8:	d503201f 	nop
    400002ac:	d503201f 	nop
    400002b0:	d503201f 	nop
    400002b4:	d503201f 	nop
    400002b8:	d503201f 	nop
    400002bc:	d503201f 	nop
    400002c0:	d503201f 	nop
    400002c4:	d503201f 	nop
    400002c8:	d503201f 	nop
    400002cc:	d503201f 	nop
    400002d0:	d503201f 	nop
    400002d4:	d503201f 	nop
    400002d8:	d503201f 	nop
    400002dc:	d503201f 	nop
    400002e0:	d503201f 	nop
    400002e4:	d503201f 	nop
    400002e8:	d503201f 	nop
    400002ec:	d503201f 	nop
    400002f0:	d503201f 	nop
    400002f4:	d503201f 	nop
    400002f8:	d503201f 	nop
    400002fc:	d503201f 	nop
    40000300:	14000140 	b	40000800 <interrupt>
    40000304:	d503201f 	nop
    40000308:	d503201f 	nop
    4000030c:	d503201f 	nop
    40000310:	d503201f 	nop
    40000314:	d503201f 	nop
    40000318:	d503201f 	nop
    4000031c:	d503201f 	nop
    40000320:	d503201f 	nop
    40000324:	d503201f 	nop
    40000328:	d503201f 	nop
    4000032c:	d503201f 	nop
    40000330:	d503201f 	nop
    40000334:	d503201f 	nop
    40000338:	d503201f 	nop
    4000033c:	d503201f 	nop
    40000340:	d503201f 	nop
    40000344:	d503201f 	nop
    40000348:	d503201f 	nop
    4000034c:	d503201f 	nop
    40000350:	d503201f 	nop
    40000354:	d503201f 	nop
    40000358:	d503201f 	nop
    4000035c:	d503201f 	nop
    40000360:	d503201f 	nop
    40000364:	d503201f 	nop
    40000368:	d503201f 	nop
    4000036c:	d503201f 	nop
    40000370:	d503201f 	nop
    40000374:	d503201f 	nop
    40000378:	d503201f 	nop
    4000037c:	d503201f 	nop
    40000380:	14000120 	b	40000800 <interrupt>
    40000384:	d503201f 	nop
    40000388:	d503201f 	nop
    4000038c:	d503201f 	nop
    40000390:	d503201f 	nop
    40000394:	d503201f 	nop
    40000398:	d503201f 	nop
    4000039c:	d503201f 	nop
    400003a0:	d503201f 	nop
    400003a4:	d503201f 	nop
    400003a8:	d503201f 	nop
    400003ac:	d503201f 	nop
    400003b0:	d503201f 	nop
    400003b4:	d503201f 	nop
    400003b8:	d503201f 	nop
    400003bc:	d503201f 	nop
    400003c0:	d503201f 	nop
    400003c4:	d503201f 	nop
    400003c8:	d503201f 	nop
    400003cc:	d503201f 	nop
    400003d0:	d503201f 	nop
    400003d4:	d503201f 	nop
    400003d8:	d503201f 	nop
    400003dc:	d503201f 	nop
    400003e0:	d503201f 	nop
    400003e4:	d503201f 	nop
    400003e8:	d503201f 	nop
    400003ec:	d503201f 	nop
    400003f0:	d503201f 	nop
    400003f4:	d503201f 	nop
    400003f8:	d503201f 	nop
    400003fc:	d503201f 	nop
    40000400:	14000100 	b	40000800 <interrupt>
    40000404:	d503201f 	nop
    40000408:	d503201f 	nop
    4000040c:	d503201f 	nop
    40000410:	d503201f 	nop
    40000414:	d503201f 	nop
    40000418:	d503201f 	nop
    4000041c:	d503201f 	nop
    40000420:	d503201f 	nop
    40000424:	d503201f 	nop
    40000428:	d503201f 	nop
    4000042c:	d503201f 	nop
    40000430:	d503201f 	nop
    40000434:	d503201f 	nop
    40000438:	d503201f 	nop
    4000043c:	d503201f 	nop
    40000440:	d503201f 	nop
    40000444:	d503201f 	nop
    40000448:	d503201f 	nop
    4000044c:	d503201f 	nop
    40000450:	d503201f 	nop
    40000454:	d503201f 	nop
    40000458:	d503201f 	nop
    4000045c:	d503201f 	nop
    40000460:	d503201f 	nop
    40000464:	d503201f 	nop
    40000468:	d503201f 	nop
    4000046c:	d503201f 	nop
    40000470:	d503201f 	nop
    40000474:	d503201f 	nop
    40000478:	d503201f 	nop
    4000047c:	d503201f 	nop
    40000480:	140000e0 	b	40000800 <interrupt>
    40000484:	d503201f 	nop
    40000488:	d503201f 	nop
    4000048c:	d503201f 	nop
    40000490:	d503201f 	nop
    40000494:	d503201f 	nop
    40000498:	d503201f 	nop
    4000049c:	d503201f 	nop
    400004a0:	d503201f 	nop
    400004a4:	d503201f 	nop
    400004a8:	d503201f 	nop
    400004ac:	d503201f 	nop
    400004b0:	d503201f 	nop
    400004b4:	d503201f 	nop
    400004b8:	d503201f 	nop
    400004bc:	d503201f 	nop
    400004c0:	d503201f 	nop
    400004c4:	d503201f 	nop
    400004c8:	d503201f 	nop
    400004cc:	d503201f 	nop
    400004d0:	d503201f 	nop
    400004d4:	d503201f 	nop
    400004d8:	d503201f 	nop
    400004dc:	d503201f 	nop
    400004e0:	d503201f 	nop
    400004e4:	d503201f 	nop
    400004e8:	d503201f 	nop
    400004ec:	d503201f 	nop
    400004f0:	d503201f 	nop
    400004f4:	d503201f 	nop
    400004f8:	d503201f 	nop
    400004fc:	d503201f 	nop
    40000500:	140000c0 	b	40000800 <interrupt>
    40000504:	d503201f 	nop
    40000508:	d503201f 	nop
    4000050c:	d503201f 	nop
    40000510:	d503201f 	nop
    40000514:	d503201f 	nop
    40000518:	d503201f 	nop
    4000051c:	d503201f 	nop
    40000520:	d503201f 	nop
    40000524:	d503201f 	nop
    40000528:	d503201f 	nop
    4000052c:	d503201f 	nop
    40000530:	d503201f 	nop
    40000534:	d503201f 	nop
    40000538:	d503201f 	nop
    4000053c:	d503201f 	nop
    40000540:	d503201f 	nop
    40000544:	d503201f 	nop
    40000548:	d503201f 	nop
    4000054c:	d503201f 	nop
    40000550:	d503201f 	nop
    40000554:	d503201f 	nop
    40000558:	d503201f 	nop
    4000055c:	d503201f 	nop
    40000560:	d503201f 	nop
    40000564:	d503201f 	nop
    40000568:	d503201f 	nop
    4000056c:	d503201f 	nop
    40000570:	d503201f 	nop
    40000574:	d503201f 	nop
    40000578:	d503201f 	nop
    4000057c:	d503201f 	nop
    40000580:	140000a0 	b	40000800 <interrupt>
    40000584:	d503201f 	nop
    40000588:	d503201f 	nop
    4000058c:	d503201f 	nop
    40000590:	d503201f 	nop
    40000594:	d503201f 	nop
    40000598:	d503201f 	nop
    4000059c:	d503201f 	nop
    400005a0:	d503201f 	nop
    400005a4:	d503201f 	nop
    400005a8:	d503201f 	nop
    400005ac:	d503201f 	nop
    400005b0:	d503201f 	nop
    400005b4:	d503201f 	nop
    400005b8:	d503201f 	nop
    400005bc:	d503201f 	nop
    400005c0:	d503201f 	nop
    400005c4:	d503201f 	nop
    400005c8:	d503201f 	nop
    400005cc:	d503201f 	nop
    400005d0:	d503201f 	nop
    400005d4:	d503201f 	nop
    400005d8:	d503201f 	nop
    400005dc:	d503201f 	nop
    400005e0:	d503201f 	nop
    400005e4:	d503201f 	nop
    400005e8:	d503201f 	nop
    400005ec:	d503201f 	nop
    400005f0:	d503201f 	nop
    400005f4:	d503201f 	nop
    400005f8:	d503201f 	nop
    400005fc:	d503201f 	nop
    40000600:	14000080 	b	40000800 <interrupt>
    40000604:	d503201f 	nop
    40000608:	d503201f 	nop
    4000060c:	d503201f 	nop
    40000610:	d503201f 	nop
    40000614:	d503201f 	nop
    40000618:	d503201f 	nop
    4000061c:	d503201f 	nop
    40000620:	d503201f 	nop
    40000624:	d503201f 	nop
    40000628:	d503201f 	nop
    4000062c:	d503201f 	nop
    40000630:	d503201f 	nop
    40000634:	d503201f 	nop
    40000638:	d503201f 	nop
    4000063c:	d503201f 	nop
    40000640:	d503201f 	nop
    40000644:	d503201f 	nop
    40000648:	d503201f 	nop
    4000064c:	d503201f 	nop
    40000650:	d503201f 	nop
    40000654:	d503201f 	nop
    40000658:	d503201f 	nop
    4000065c:	d503201f 	nop
    40000660:	d503201f 	nop
    40000664:	d503201f 	nop
    40000668:	d503201f 	nop
    4000066c:	d503201f 	nop
    40000670:	d503201f 	nop
    40000674:	d503201f 	nop
    40000678:	d503201f 	nop
    4000067c:	d503201f 	nop
    40000680:	14000060 	b	40000800 <interrupt>
    40000684:	d503201f 	nop
    40000688:	d503201f 	nop
    4000068c:	d503201f 	nop
    40000690:	d503201f 	nop
    40000694:	d503201f 	nop
    40000698:	d503201f 	nop
    4000069c:	d503201f 	nop
    400006a0:	d503201f 	nop
    400006a4:	d503201f 	nop
    400006a8:	d503201f 	nop
    400006ac:	d503201f 	nop
    400006b0:	d503201f 	nop
    400006b4:	d503201f 	nop
    400006b8:	d503201f 	nop
    400006bc:	d503201f 	nop
    400006c0:	d503201f 	nop
    400006c4:	d503201f 	nop
    400006c8:	d503201f 	nop
    400006cc:	d503201f 	nop
    400006d0:	d503201f 	nop
    400006d4:	d503201f 	nop
    400006d8:	d503201f 	nop
    400006dc:	d503201f 	nop
    400006e0:	d503201f 	nop
    400006e4:	d503201f 	nop
    400006e8:	d503201f 	nop
    400006ec:	d503201f 	nop
    400006f0:	d503201f 	nop
    400006f4:	d503201f 	nop
    400006f8:	d503201f 	nop
    400006fc:	d503201f 	nop
    40000700:	14000040 	b	40000800 <interrupt>
    40000704:	d503201f 	nop
    40000708:	d503201f 	nop
    4000070c:	d503201f 	nop
    40000710:	d503201f 	nop
    40000714:	d503201f 	nop
    40000718:	d503201f 	nop
    4000071c:	d503201f 	nop
    40000720:	d503201f 	nop
    40000724:	d503201f 	nop
    40000728:	d503201f 	nop
    4000072c:	d503201f 	nop
    40000730:	d503201f 	nop
    40000734:	d503201f 	nop
    40000738:	d503201f 	nop
    4000073c:	d503201f 	nop
    40000740:	d503201f 	nop
    40000744:	d503201f 	nop
    40000748:	d503201f 	nop
    4000074c:	d503201f 	nop
    40000750:	d503201f 	nop
    40000754:	d503201f 	nop
    40000758:	d503201f 	nop
    4000075c:	d503201f 	nop
    40000760:	d503201f 	nop
    40000764:	d503201f 	nop
    40000768:	d503201f 	nop
    4000076c:	d503201f 	nop
    40000770:	d503201f 	nop
    40000774:	d503201f 	nop
    40000778:	d503201f 	nop
    4000077c:	d503201f 	nop
    40000780:	14000020 	b	40000800 <interrupt>
    40000784:	d503201f 	nop
    40000788:	d503201f 	nop
    4000078c:	d503201f 	nop
    40000790:	d503201f 	nop
    40000794:	d503201f 	nop
    40000798:	d503201f 	nop
    4000079c:	d503201f 	nop
    400007a0:	d503201f 	nop
    400007a4:	d503201f 	nop
    400007a8:	d503201f 	nop
    400007ac:	d503201f 	nop
    400007b0:	d503201f 	nop
    400007b4:	d503201f 	nop
    400007b8:	d503201f 	nop
    400007bc:	d503201f 	nop
    400007c0:	d503201f 	nop
    400007c4:	d503201f 	nop
    400007c8:	d503201f 	nop
    400007cc:	d503201f 	nop
    400007d0:	d503201f 	nop
    400007d4:	d503201f 	nop
    400007d8:	d503201f 	nop
    400007dc:	d503201f 	nop
    400007e0:	d503201f 	nop
    400007e4:	d503201f 	nop
    400007e8:	d503201f 	nop
    400007ec:	d503201f 	nop
    400007f0:	d503201f 	nop
    400007f4:	d503201f 	nop
    400007f8:	d503201f 	nop
    400007fc:	d503201f 	nop

0000000040000800 <interrupt>:
    40000800:	a9bf07e0 	stp	x0, x1, [sp, #-16]!
    40000804:	a9bf0fe2 	stp	x2, x3, [sp, #-16]!
    40000808:	a9bf17e4 	stp	x4, x5, [sp, #-16]!
    4000080c:	a9bf1fe6 	stp	x6, x7, [sp, #-16]!
    40000810:	a9bf27e8 	stp	x8, x9, [sp, #-16]!
    40000814:	a9bf2fea 	stp	x10, x11, [sp, #-16]!
    40000818:	a9bf37ec 	stp	x12, x13, [sp, #-16]!
    4000081c:	a9bf3fee 	stp	x14, x15, [sp, #-16]!
    40000820:	a9bf47f0 	stp	x16, x17, [sp, #-16]!
    40000824:	a9bf4ff2 	stp	x18, x19, [sp, #-16]!
    40000828:	140002ae 	b	400012e0 <kinterrupt>
    4000082c:	d50342ff 	msr	daifclr, #0x2
    40000830:	a8c14ff2 	ldp	x18, x19, [sp], #16
    40000834:	a8c147f0 	ldp	x16, x17, [sp], #16
    40000838:	a8c13fee 	ldp	x14, x15, [sp], #16
    4000083c:	a8c137ec 	ldp	x12, x13, [sp], #16
    40000840:	a8c12fea 	ldp	x10, x11, [sp], #16
    40000844:	a8c127e8 	ldp	x8, x9, [sp], #16
    40000848:	a8c11fe6 	ldp	x6, x7, [sp], #16
    4000084c:	a8c117e4 	ldp	x4, x5, [sp], #16
    40000850:	a8c10fe2 	ldp	x2, x3, [sp], #16
    40000854:	a8c107e0 	ldp	x0, x1, [sp], #16
    40000858:	d69f03e0 	eret
    4000085c:	00000000 	.inst	0x00000000 ; undefined
    40000860:	7e801390 	.word	0x7e801390
    40000864:	00000000 	.word	0x00000000
    40000868:	40000048 	.word	0x40000048
    4000086c:	00000000 	.word	0x00000000

0000000040000870 <kputc>:
    40000870:	d10043ff 	sub	sp, sp, #0x10
    40000874:	39003fe0 	strb	w0, [sp, #15]
    40000878:	d2a12000 	mov	x0, #0x9000000             	// #150994944
    4000087c:	39403fe1 	ldrb	w1, [sp, #15]
    40000880:	b9000001 	str	w1, [x0]
    40000884:	d503201f 	nop
    40000888:	910043ff 	add	sp, sp, #0x10
    4000088c:	d65f03c0 	ret

0000000040000890 <kputs>:
    40000890:	a9be7bfd 	stp	x29, x30, [sp, #-32]!
    40000894:	910003fd 	mov	x29, sp
    40000898:	f9000fa0 	str	x0, [x29, #24]
    4000089c:	14000007 	b	400008b8 <kputs+0x28>
    400008a0:	f9400fa0 	ldr	x0, [x29, #24]
    400008a4:	39400000 	ldrb	w0, [x0]
    400008a8:	97fffff2 	bl	40000870 <kputc>
    400008ac:	f9400fa0 	ldr	x0, [x29, #24]
    400008b0:	91000400 	add	x0, x0, #0x1
    400008b4:	f9000fa0 	str	x0, [x29, #24]
    400008b8:	f9400fa0 	ldr	x0, [x29, #24]
    400008bc:	39400000 	ldrb	w0, [x0]
    400008c0:	7100001f 	cmp	w0, #0x0
    400008c4:	54fffee1 	b.ne	400008a0 <kputs+0x10>  // b.any
    400008c8:	d503201f 	nop
    400008cc:	a8c27bfd 	ldp	x29, x30, [sp], #32
    400008d0:	d65f03c0 	ret

00000000400008d4 <itoh>:
    400008d4:	d100c3ff 	sub	sp, sp, #0x30
    400008d8:	b9000fe0 	str	w0, [sp, #12]
    400008dc:	f90003e1 	str	x1, [sp]
    400008e0:	b0000000 	adrp	x0, 40001000 <_kprintf+0x480>
    400008e4:	910c2000 	add	x0, x0, #0x308
    400008e8:	f90013e0 	str	x0, [sp, #32]
    400008ec:	52800200 	mov	w0, #0x10                  	// #16
    400008f0:	b9001fe0 	str	w0, [sp, #28]
    400008f4:	b9002bff 	str	wzr, [sp, #40]
    400008f8:	52800100 	mov	w0, #0x8                   	// #8
    400008fc:	b9002fe0 	str	w0, [sp, #44]
    40000900:	14000015 	b	40000954 <itoh+0x80>
    40000904:	b9402fe0 	ldr	w0, [sp, #44]
    40000908:	531e7400 	lsl	w0, w0, #2
    4000090c:	b9400fe1 	ldr	w1, [sp, #12]
    40000910:	1ac02820 	asr	w0, w1, w0
    40000914:	12000c00 	and	w0, w0, #0xf
    40000918:	b9001be0 	str	w0, [sp, #24]
    4000091c:	b9801be0 	ldrsw	x0, [sp, #24]
    40000920:	f94013e1 	ldr	x1, [sp, #32]
    40000924:	8b000021 	add	x1, x1, x0
    40000928:	b9802be0 	ldrsw	x0, [sp, #40]
    4000092c:	f94003e2 	ldr	x2, [sp]
    40000930:	8b000040 	add	x0, x2, x0
    40000934:	39400021 	ldrb	w1, [x1]
    40000938:	39000001 	strb	w1, [x0]
    4000093c:	b9402be0 	ldr	w0, [sp, #40]
    40000940:	11000400 	add	w0, w0, #0x1
    40000944:	b9002be0 	str	w0, [sp, #40]
    40000948:	b9402fe0 	ldr	w0, [sp, #44]
    4000094c:	51000400 	sub	w0, w0, #0x1
    40000950:	b9002fe0 	str	w0, [sp, #44]
    40000954:	b9402fe0 	ldr	w0, [sp, #44]
    40000958:	7100001f 	cmp	w0, #0x0
    4000095c:	54fffd4a 	b.ge	40000904 <itoh+0x30>  // b.tcont
    40000960:	b9802be0 	ldrsw	x0, [sp, #40]
    40000964:	f94003e1 	ldr	x1, [sp]
    40000968:	8b000020 	add	x0, x1, x0
    4000096c:	3900001f 	strb	wzr, [x0]
    40000970:	f94003e0 	ldr	x0, [sp]
    40000974:	9100c3ff 	add	sp, sp, #0x30
    40000978:	d65f03c0 	ret

000000004000097c <reverse>:
    4000097c:	d10083ff 	sub	sp, sp, #0x20
    40000980:	f90007e0 	str	x0, [sp, #8]
    40000984:	b90007e1 	str	w1, [sp, #4]
    40000988:	b9001fff 	str	wzr, [sp, #28]
    4000098c:	b94007e0 	ldr	w0, [sp, #4]
    40000990:	51000400 	sub	w0, w0, #0x1
    40000994:	b9001be0 	str	w0, [sp, #24]
    40000998:	14000019 	b	400009fc <reverse+0x80>
    4000099c:	b9801fe0 	ldrsw	x0, [sp, #28]
    400009a0:	f94007e1 	ldr	x1, [sp, #8]
    400009a4:	8b000020 	add	x0, x1, x0
    400009a8:	39400000 	ldrb	w0, [x0]
    400009ac:	39005fe0 	strb	w0, [sp, #23]
    400009b0:	b9801be0 	ldrsw	x0, [sp, #24]
    400009b4:	f94007e1 	ldr	x1, [sp, #8]
    400009b8:	8b000021 	add	x1, x1, x0
    400009bc:	b9801fe0 	ldrsw	x0, [sp, #28]
    400009c0:	f94007e2 	ldr	x2, [sp, #8]
    400009c4:	8b000040 	add	x0, x2, x0
    400009c8:	39400021 	ldrb	w1, [x1]
    400009cc:	39000001 	strb	w1, [x0]
    400009d0:	b9801be0 	ldrsw	x0, [sp, #24]
    400009d4:	f94007e1 	ldr	x1, [sp, #8]
    400009d8:	8b000020 	add	x0, x1, x0
    400009dc:	39405fe1 	ldrb	w1, [sp, #23]
    400009e0:	39000001 	strb	w1, [x0]
    400009e4:	b9401fe0 	ldr	w0, [sp, #28]
    400009e8:	11000400 	add	w0, w0, #0x1
    400009ec:	b9001fe0 	str	w0, [sp, #28]
    400009f0:	b9401be0 	ldr	w0, [sp, #24]
    400009f4:	51000400 	sub	w0, w0, #0x1
    400009f8:	b9001be0 	str	w0, [sp, #24]
    400009fc:	b9401fe1 	ldr	w1, [sp, #28]
    40000a00:	b9401be0 	ldr	w0, [sp, #24]
    40000a04:	6b00003f 	cmp	w1, w0
    40000a08:	54fffcab 	b.lt	4000099c <reverse+0x20>  // b.tstop
    40000a0c:	d503201f 	nop
    40000a10:	910083ff 	add	sp, sp, #0x20
    40000a14:	d65f03c0 	ret

0000000040000a18 <itoa>:
    40000a18:	a9bd7bfd 	stp	x29, x30, [sp, #-48]!
    40000a1c:	910003fd 	mov	x29, sp
    40000a20:	b9001fa0 	str	w0, [x29, #28]
    40000a24:	f9000ba1 	str	x1, [x29, #16]
    40000a28:	b9001ba2 	str	w2, [x29, #24]
    40000a2c:	b9002fbf 	str	wzr, [x29, #44]
    40000a30:	3900afbf 	strb	wzr, [x29, #43]
    40000a34:	b9401fa0 	ldr	w0, [x29, #28]
    40000a38:	7100001f 	cmp	w0, #0x0
    40000a3c:	540001e1 	b.ne	40000a78 <itoa+0x60>  // b.any
    40000a40:	b9402fa0 	ldr	w0, [x29, #44]
    40000a44:	11000401 	add	w1, w0, #0x1
    40000a48:	b9002fa1 	str	w1, [x29, #44]
    40000a4c:	93407c00 	sxtw	x0, w0
    40000a50:	f9400ba1 	ldr	x1, [x29, #16]
    40000a54:	8b000020 	add	x0, x1, x0
    40000a58:	52800601 	mov	w1, #0x30                  	// #48
    40000a5c:	39000001 	strb	w1, [x0]
    40000a60:	b9802fa0 	ldrsw	x0, [x29, #44]
    40000a64:	f9400ba1 	ldr	x1, [x29, #16]
    40000a68:	8b000020 	add	x0, x1, x0
    40000a6c:	3900001f 	strb	wzr, [x0]
    40000a70:	f9400ba0 	ldr	x0, [x29, #16]
    40000a74:	14000041 	b	40000b78 <itoa+0x160>
    40000a78:	b9401fa0 	ldr	w0, [x29, #28]
    40000a7c:	7100001f 	cmp	w0, #0x0
    40000a80:	5400050a 	b.ge	40000b20 <itoa+0x108>  // b.tcont
    40000a84:	b9401ba0 	ldr	w0, [x29, #24]
    40000a88:	7100281f 	cmp	w0, #0xa
    40000a8c:	540004a1 	b.ne	40000b20 <itoa+0x108>  // b.any
    40000a90:	52800020 	mov	w0, #0x1                   	// #1
    40000a94:	3900afa0 	strb	w0, [x29, #43]
    40000a98:	b9401fa0 	ldr	w0, [x29, #28]
    40000a9c:	4b0003e0 	neg	w0, w0
    40000aa0:	b9001fa0 	str	w0, [x29, #28]
    40000aa4:	1400001f 	b	40000b20 <itoa+0x108>
    40000aa8:	b9401fa0 	ldr	w0, [x29, #28]
    40000aac:	b9401ba1 	ldr	w1, [x29, #24]
    40000ab0:	1ac10c02 	sdiv	w2, w0, w1
    40000ab4:	b9401ba1 	ldr	w1, [x29, #24]
    40000ab8:	1b017c41 	mul	w1, w2, w1
    40000abc:	4b010000 	sub	w0, w0, w1
    40000ac0:	b90027a0 	str	w0, [x29, #36]
    40000ac4:	b94027a0 	ldr	w0, [x29, #36]
    40000ac8:	7100241f 	cmp	w0, #0x9
    40000acc:	540000cd 	b.le	40000ae4 <itoa+0xcc>
    40000ad0:	b94027a0 	ldr	w0, [x29, #36]
    40000ad4:	12001c00 	and	w0, w0, #0xff
    40000ad8:	11015c00 	add	w0, w0, #0x57
    40000adc:	12001c00 	and	w0, w0, #0xff
    40000ae0:	14000005 	b	40000af4 <itoa+0xdc>
    40000ae4:	b94027a0 	ldr	w0, [x29, #36]
    40000ae8:	12001c00 	and	w0, w0, #0xff
    40000aec:	1100c000 	add	w0, w0, #0x30
    40000af0:	12001c00 	and	w0, w0, #0xff
    40000af4:	b9402fa1 	ldr	w1, [x29, #44]
    40000af8:	11000422 	add	w2, w1, #0x1
    40000afc:	b9002fa2 	str	w2, [x29, #44]
    40000b00:	93407c21 	sxtw	x1, w1
    40000b04:	f9400ba2 	ldr	x2, [x29, #16]
    40000b08:	8b010041 	add	x1, x2, x1
    40000b0c:	39000020 	strb	w0, [x1]
    40000b10:	b9401fa1 	ldr	w1, [x29, #28]
    40000b14:	b9401ba0 	ldr	w0, [x29, #24]
    40000b18:	1ac00c20 	sdiv	w0, w1, w0
    40000b1c:	b9001fa0 	str	w0, [x29, #28]
    40000b20:	b9401fa0 	ldr	w0, [x29, #28]
    40000b24:	7100001f 	cmp	w0, #0x0
    40000b28:	54fffc01 	b.ne	40000aa8 <itoa+0x90>  // b.any
    40000b2c:	3940afa0 	ldrb	w0, [x29, #43]
    40000b30:	7100001f 	cmp	w0, #0x0
    40000b34:	54000120 	b.eq	40000b58 <itoa+0x140>  // b.none
    40000b38:	b9402fa0 	ldr	w0, [x29, #44]
    40000b3c:	11000401 	add	w1, w0, #0x1
    40000b40:	b9002fa1 	str	w1, [x29, #44]
    40000b44:	93407c00 	sxtw	x0, w0
    40000b48:	f9400ba1 	ldr	x1, [x29, #16]
    40000b4c:	8b000020 	add	x0, x1, x0
    40000b50:	528005a1 	mov	w1, #0x2d                  	// #45
    40000b54:	39000001 	strb	w1, [x0]
    40000b58:	b9802fa0 	ldrsw	x0, [x29, #44]
    40000b5c:	f9400ba1 	ldr	x1, [x29, #16]
    40000b60:	8b000020 	add	x0, x1, x0
    40000b64:	3900001f 	strb	wzr, [x0]
    40000b68:	b9402fa1 	ldr	w1, [x29, #44]
    40000b6c:	f9400ba0 	ldr	x0, [x29, #16]
    40000b70:	97ffff83 	bl	4000097c <reverse>
    40000b74:	f9400ba0 	ldr	x0, [x29, #16]
    40000b78:	a8c37bfd 	ldp	x29, x30, [sp], #48
    40000b7c:	d65f03c0 	ret

0000000040000b80 <_kprintf>:
    40000b80:	a9a87bfd 	stp	x29, x30, [sp, #-384]!
    40000b84:	910003fd 	mov	x29, sp
    40000b88:	f90017a0 	str	x0, [x29, #40]
    40000b8c:	f90013a1 	str	x1, [x29, #32]
    40000b90:	f9000fa2 	str	x2, [x29, #24]
    40000b94:	b9016fbf 	str	wzr, [x29, #364]
    40000b98:	f94013a0 	ldr	x0, [x29, #32]
    40000b9c:	f900bfa0 	str	x0, [x29, #376]
    40000ba0:	1400016a 	b	40001148 <_kprintf+0x5c8>
    40000ba4:	f940bfa0 	ldr	x0, [x29, #376]
    40000ba8:	39400000 	ldrb	w0, [x0]
    40000bac:	7101701f 	cmp	w0, #0x5c
    40000bb0:	54000541 	b.ne	40000c58 <_kprintf+0xd8>  // b.any
    40000bb4:	f940bfa0 	ldr	x0, [x29, #376]
    40000bb8:	91000400 	add	x0, x0, #0x1
    40000bbc:	f900bfa0 	str	x0, [x29, #376]
    40000bc0:	f940bfa0 	ldr	x0, [x29, #376]
    40000bc4:	39400000 	ldrb	w0, [x0]
    40000bc8:	7101b81f 	cmp	w0, #0x6e
    40000bcc:	54000080 	b.eq	40000bdc <_kprintf+0x5c>  // b.none
    40000bd0:	7101c81f 	cmp	w0, #0x72
    40000bd4:	54000220 	b.eq	40000c18 <_kprintf+0x98>  // b.none
    40000bd8:	1400001f 	b	40000c54 <_kprintf+0xd4>
    40000bdc:	f94017a0 	ldr	x0, [x29, #40]
    40000be0:	f100001f 	cmp	x0, #0x0
    40000be4:	54000081 	b.ne	40000bf4 <_kprintf+0x74>  // b.any
    40000be8:	52800140 	mov	w0, #0xa                   	// #10
    40000bec:	97ffff21 	bl	40000870 <kputc>
    40000bf0:	14000019 	b	40000c54 <_kprintf+0xd4>
    40000bf4:	b9416fa0 	ldr	w0, [x29, #364]
    40000bf8:	11000401 	add	w1, w0, #0x1
    40000bfc:	b9016fa1 	str	w1, [x29, #364]
    40000c00:	93407c00 	sxtw	x0, w0
    40000c04:	f94017a1 	ldr	x1, [x29, #40]
    40000c08:	8b000020 	add	x0, x1, x0
    40000c0c:	52800141 	mov	w1, #0xa                   	// #10
    40000c10:	39000001 	strb	w1, [x0]
    40000c14:	14000010 	b	40000c54 <_kprintf+0xd4>
    40000c18:	f94017a0 	ldr	x0, [x29, #40]
    40000c1c:	f100001f 	cmp	x0, #0x0
    40000c20:	54000081 	b.ne	40000c30 <_kprintf+0xb0>  // b.any
    40000c24:	528001a0 	mov	w0, #0xd                   	// #13
    40000c28:	97ffff12 	bl	40000870 <kputc>
    40000c2c:	14000009 	b	40000c50 <_kprintf+0xd0>
    40000c30:	b9416fa0 	ldr	w0, [x29, #364]
    40000c34:	11000401 	add	w1, w0, #0x1
    40000c38:	b9016fa1 	str	w1, [x29, #364]
    40000c3c:	93407c00 	sxtw	x0, w0
    40000c40:	f94017a1 	ldr	x1, [x29, #40]
    40000c44:	8b000020 	add	x0, x1, x0
    40000c48:	528001a1 	mov	w1, #0xd                   	// #13
    40000c4c:	39000001 	strb	w1, [x0]
    40000c50:	d503201f 	nop
    40000c54:	1400013a 	b	4000113c <_kprintf+0x5bc>
    40000c58:	f940bfa0 	ldr	x0, [x29, #376]
    40000c5c:	39400000 	ldrb	w0, [x0]
    40000c60:	7100941f 	cmp	w0, #0x25
    40000c64:	54000240 	b.eq	40000cac <_kprintf+0x12c>  // b.none
    40000c68:	f94017a0 	ldr	x0, [x29, #40]
    40000c6c:	f100001f 	cmp	x0, #0x0
    40000c70:	540000a1 	b.ne	40000c84 <_kprintf+0x104>  // b.any
    40000c74:	f940bfa0 	ldr	x0, [x29, #376]
    40000c78:	39400000 	ldrb	w0, [x0]
    40000c7c:	97fffefd 	bl	40000870 <kputc>
    40000c80:	1400012f 	b	4000113c <_kprintf+0x5bc>
    40000c84:	b9416fa0 	ldr	w0, [x29, #364]
    40000c88:	11000401 	add	w1, w0, #0x1
    40000c8c:	b9016fa1 	str	w1, [x29, #364]
    40000c90:	93407c00 	sxtw	x0, w0
    40000c94:	f94017a1 	ldr	x1, [x29, #40]
    40000c98:	8b000020 	add	x0, x1, x0
    40000c9c:	f940bfa1 	ldr	x1, [x29, #376]
    40000ca0:	39400021 	ldrb	w1, [x1]
    40000ca4:	39000001 	strb	w1, [x0]
    40000ca8:	14000125 	b	4000113c <_kprintf+0x5bc>
    40000cac:	f940bfa0 	ldr	x0, [x29, #376]
    40000cb0:	91000400 	add	x0, x0, #0x1
    40000cb4:	f900bfa0 	str	x0, [x29, #376]
    40000cb8:	f940bfa0 	ldr	x0, [x29, #376]
    40000cbc:	39400000 	ldrb	w0, [x0]
    40000cc0:	7101901f 	cmp	w0, #0x64
    40000cc4:	54001980 	b.eq	40000ff4 <_kprintf+0x474>  // b.none
    40000cc8:	7101901f 	cmp	w0, #0x64
    40000ccc:	540000cc 	b.gt	40000ce4 <_kprintf+0x164>
    40000cd0:	7100941f 	cmp	w0, #0x25
    40000cd4:	54002160 	b.eq	40001100 <_kprintf+0x580>  // b.none
    40000cd8:	71018c1f 	cmp	w0, #0x63
    40000cdc:	540000e0 	b.eq	40000cf8 <_kprintf+0x178>  // b.none
    40000ce0:	14000117 	b	4000113c <_kprintf+0x5bc>
    40000ce4:	7101cc1f 	cmp	w0, #0x73
    40000ce8:	54000700 	b.eq	40000dc8 <_kprintf+0x248>  // b.none
    40000cec:	7101e01f 	cmp	w0, #0x78
    40000cf0:	54000f20 	b.eq	40000ed4 <_kprintf+0x354>  // b.none
    40000cf4:	14000112 	b	4000113c <_kprintf+0x5bc>
    40000cf8:	f9400fa0 	ldr	x0, [x29, #24]
    40000cfc:	b9401800 	ldr	w0, [x0, #24]
    40000d00:	f9400fa1 	ldr	x1, [x29, #24]
    40000d04:	f9400021 	ldr	x1, [x1]
    40000d08:	7100001f 	cmp	w0, #0x0
    40000d0c:	5400012b 	b.lt	40000d30 <_kprintf+0x1b0>  // b.tstop
    40000d10:	aa0103e0 	mov	x0, x1
    40000d14:	91002c00 	add	x0, x0, #0xb
    40000d18:	927df000 	and	x0, x0, #0xfffffffffffffff8
    40000d1c:	aa0003e2 	mov	x2, x0
    40000d20:	f9400fa0 	ldr	x0, [x29, #24]
    40000d24:	f9000002 	str	x2, [x0]
    40000d28:	aa0103e0 	mov	x0, x1
    40000d2c:	14000014 	b	40000d7c <_kprintf+0x1fc>
    40000d30:	11002003 	add	w3, w0, #0x8
    40000d34:	f9400fa2 	ldr	x2, [x29, #24]
    40000d38:	b9001843 	str	w3, [x2, #24]
    40000d3c:	f9400fa2 	ldr	x2, [x29, #24]
    40000d40:	b9401842 	ldr	w2, [x2, #24]
    40000d44:	7100005f 	cmp	w2, #0x0
    40000d48:	5400012d 	b.le	40000d6c <_kprintf+0x1ec>
    40000d4c:	aa0103e0 	mov	x0, x1
    40000d50:	91002c00 	add	x0, x0, #0xb
    40000d54:	927df000 	and	x0, x0, #0xfffffffffffffff8
    40000d58:	aa0003e2 	mov	x2, x0
    40000d5c:	f9400fa0 	ldr	x0, [x29, #24]
    40000d60:	f9000002 	str	x2, [x0]
    40000d64:	aa0103e0 	mov	x0, x1
    40000d68:	14000005 	b	40000d7c <_kprintf+0x1fc>
    40000d6c:	f9400fa1 	ldr	x1, [x29, #24]
    40000d70:	f9400421 	ldr	x1, [x1, #8]
    40000d74:	93407c00 	sxtw	x0, w0
    40000d78:	8b000020 	add	x0, x1, x0
    40000d7c:	b9400000 	ldr	w0, [x0]
    40000d80:	b90167a0 	str	w0, [x29, #356]
    40000d84:	f94017a0 	ldr	x0, [x29, #40]
    40000d88:	f100001f 	cmp	x0, #0x0
    40000d8c:	540000a1 	b.ne	40000da0 <_kprintf+0x220>  // b.any
    40000d90:	b94167a0 	ldr	w0, [x29, #356]
    40000d94:	12001c00 	and	w0, w0, #0xff
    40000d98:	97fffeb6 	bl	40000870 <kputc>
    40000d9c:	140000e8 	b	4000113c <_kprintf+0x5bc>
    40000da0:	b9416fa0 	ldr	w0, [x29, #364]
    40000da4:	11000401 	add	w1, w0, #0x1
    40000da8:	b9016fa1 	str	w1, [x29, #364]
    40000dac:	93407c00 	sxtw	x0, w0
    40000db0:	f94017a1 	ldr	x1, [x29, #40]
    40000db4:	8b000020 	add	x0, x1, x0
    40000db8:	b94167a1 	ldr	w1, [x29, #356]
    40000dbc:	12001c21 	and	w1, w1, #0xff
    40000dc0:	39000001 	strb	w1, [x0]
    40000dc4:	140000de 	b	4000113c <_kprintf+0x5bc>
    40000dc8:	f9400fa0 	ldr	x0, [x29, #24]
    40000dcc:	b9401800 	ldr	w0, [x0, #24]
    40000dd0:	f9400fa1 	ldr	x1, [x29, #24]
    40000dd4:	f9400021 	ldr	x1, [x1]
    40000dd8:	7100001f 	cmp	w0, #0x0
    40000ddc:	5400012b 	b.lt	40000e00 <_kprintf+0x280>  // b.tstop
    40000de0:	aa0103e0 	mov	x0, x1
    40000de4:	91003c00 	add	x0, x0, #0xf
    40000de8:	927df000 	and	x0, x0, #0xfffffffffffffff8
    40000dec:	aa0003e2 	mov	x2, x0
    40000df0:	f9400fa0 	ldr	x0, [x29, #24]
    40000df4:	f9000002 	str	x2, [x0]
    40000df8:	aa0103e0 	mov	x0, x1
    40000dfc:	14000014 	b	40000e4c <_kprintf+0x2cc>
    40000e00:	11002003 	add	w3, w0, #0x8
    40000e04:	f9400fa2 	ldr	x2, [x29, #24]
    40000e08:	b9001843 	str	w3, [x2, #24]
    40000e0c:	f9400fa2 	ldr	x2, [x29, #24]
    40000e10:	b9401842 	ldr	w2, [x2, #24]
    40000e14:	7100005f 	cmp	w2, #0x0
    40000e18:	5400012d 	b.le	40000e3c <_kprintf+0x2bc>
    40000e1c:	aa0103e0 	mov	x0, x1
    40000e20:	91003c00 	add	x0, x0, #0xf
    40000e24:	927df000 	and	x0, x0, #0xfffffffffffffff8
    40000e28:	aa0003e2 	mov	x2, x0
    40000e2c:	f9400fa0 	ldr	x0, [x29, #24]
    40000e30:	f9000002 	str	x2, [x0]
    40000e34:	aa0103e0 	mov	x0, x1
    40000e38:	14000005 	b	40000e4c <_kprintf+0x2cc>
    40000e3c:	f9400fa1 	ldr	x1, [x29, #24]
    40000e40:	f9400421 	ldr	x1, [x1, #8]
    40000e44:	93407c00 	sxtw	x0, w0
    40000e48:	8b000020 	add	x0, x1, x0
    40000e4c:	f9400000 	ldr	x0, [x0]
    40000e50:	f900bba0 	str	x0, [x29, #368]
    40000e54:	b9016bbf 	str	wzr, [x29, #360]
    40000e58:	14000018 	b	40000eb8 <_kprintf+0x338>
    40000e5c:	f94017a0 	ldr	x0, [x29, #40]
    40000e60:	f100001f 	cmp	x0, #0x0
    40000e64:	540000e1 	b.ne	40000e80 <_kprintf+0x300>  // b.any
    40000e68:	b9816ba0 	ldrsw	x0, [x29, #360]
    40000e6c:	f940bba1 	ldr	x1, [x29, #368]
    40000e70:	8b000020 	add	x0, x1, x0
    40000e74:	39400000 	ldrb	w0, [x0]
    40000e78:	97fffe7e 	bl	40000870 <kputc>
    40000e7c:	1400000c 	b	40000eac <_kprintf+0x32c>
    40000e80:	b9816ba0 	ldrsw	x0, [x29, #360]
    40000e84:	f940bba1 	ldr	x1, [x29, #368]
    40000e88:	8b000021 	add	x1, x1, x0
    40000e8c:	b9416fa0 	ldr	w0, [x29, #364]
    40000e90:	11000402 	add	w2, w0, #0x1
    40000e94:	b9016fa2 	str	w2, [x29, #364]
    40000e98:	93407c00 	sxtw	x0, w0
    40000e9c:	f94017a2 	ldr	x2, [x29, #40]
    40000ea0:	8b000040 	add	x0, x2, x0
    40000ea4:	39400021 	ldrb	w1, [x1]
    40000ea8:	39000001 	strb	w1, [x0]
    40000eac:	b9416ba0 	ldr	w0, [x29, #360]
    40000eb0:	11000400 	add	w0, w0, #0x1
    40000eb4:	b9016ba0 	str	w0, [x29, #360]
    40000eb8:	b9816ba0 	ldrsw	x0, [x29, #360]
    40000ebc:	f940bba1 	ldr	x1, [x29, #368]
    40000ec0:	8b000020 	add	x0, x1, x0
    40000ec4:	39400000 	ldrb	w0, [x0]
    40000ec8:	7100001f 	cmp	w0, #0x0
    40000ecc:	54fffc81 	b.ne	40000e5c <_kprintf+0x2dc>  // b.any
    40000ed0:	1400009b 	b	4000113c <_kprintf+0x5bc>
    40000ed4:	f9400fa0 	ldr	x0, [x29, #24]
    40000ed8:	b9401800 	ldr	w0, [x0, #24]
    40000edc:	f9400fa1 	ldr	x1, [x29, #24]
    40000ee0:	f9400021 	ldr	x1, [x1]
    40000ee4:	7100001f 	cmp	w0, #0x0
    40000ee8:	5400012b 	b.lt	40000f0c <_kprintf+0x38c>  // b.tstop
    40000eec:	aa0103e0 	mov	x0, x1
    40000ef0:	91002c00 	add	x0, x0, #0xb
    40000ef4:	927df000 	and	x0, x0, #0xfffffffffffffff8
    40000ef8:	aa0003e2 	mov	x2, x0
    40000efc:	f9400fa0 	ldr	x0, [x29, #24]
    40000f00:	f9000002 	str	x2, [x0]
    40000f04:	aa0103e0 	mov	x0, x1
    40000f08:	14000014 	b	40000f58 <_kprintf+0x3d8>
    40000f0c:	11002003 	add	w3, w0, #0x8
    40000f10:	f9400fa2 	ldr	x2, [x29, #24]
    40000f14:	b9001843 	str	w3, [x2, #24]
    40000f18:	f9400fa2 	ldr	x2, [x29, #24]
    40000f1c:	b9401842 	ldr	w2, [x2, #24]
    40000f20:	7100005f 	cmp	w2, #0x0
    40000f24:	5400012d 	b.le	40000f48 <_kprintf+0x3c8>
    40000f28:	aa0103e0 	mov	x0, x1
    40000f2c:	91002c00 	add	x0, x0, #0xb
    40000f30:	927df000 	and	x0, x0, #0xfffffffffffffff8
    40000f34:	aa0003e2 	mov	x2, x0
    40000f38:	f9400fa0 	ldr	x0, [x29, #24]
    40000f3c:	f9000002 	str	x2, [x0]
    40000f40:	aa0103e0 	mov	x0, x1
    40000f44:	14000005 	b	40000f58 <_kprintf+0x3d8>
    40000f48:	f9400fa1 	ldr	x1, [x29, #24]
    40000f4c:	f9400421 	ldr	x1, [x1, #8]
    40000f50:	93407c00 	sxtw	x0, w0
    40000f54:	8b000020 	add	x0, x1, x0
    40000f58:	b9400000 	ldr	w0, [x0]
    40000f5c:	b90167a0 	str	w0, [x29, #356]
    40000f60:	910183a0 	add	x0, x29, #0x60
    40000f64:	aa0003e1 	mov	x1, x0
    40000f68:	b94167a0 	ldr	w0, [x29, #356]
    40000f6c:	97fffe5a 	bl	400008d4 <itoh>
    40000f70:	f900bba0 	str	x0, [x29, #368]
    40000f74:	b9016bbf 	str	wzr, [x29, #360]
    40000f78:	14000018 	b	40000fd8 <_kprintf+0x458>
    40000f7c:	f94017a0 	ldr	x0, [x29, #40]
    40000f80:	f100001f 	cmp	x0, #0x0
    40000f84:	540000e1 	b.ne	40000fa0 <_kprintf+0x420>  // b.any
    40000f88:	b9816ba0 	ldrsw	x0, [x29, #360]
    40000f8c:	f940bba1 	ldr	x1, [x29, #368]
    40000f90:	8b000020 	add	x0, x1, x0
    40000f94:	39400000 	ldrb	w0, [x0]
    40000f98:	97fffe36 	bl	40000870 <kputc>
    40000f9c:	1400000c 	b	40000fcc <_kprintf+0x44c>
    40000fa0:	b9816ba0 	ldrsw	x0, [x29, #360]
    40000fa4:	f940bba1 	ldr	x1, [x29, #368]
    40000fa8:	8b000021 	add	x1, x1, x0
    40000fac:	b9416fa0 	ldr	w0, [x29, #364]
    40000fb0:	11000402 	add	w2, w0, #0x1
    40000fb4:	b9016fa2 	str	w2, [x29, #364]
    40000fb8:	93407c00 	sxtw	x0, w0
    40000fbc:	f94017a2 	ldr	x2, [x29, #40]
    40000fc0:	8b000040 	add	x0, x2, x0
    40000fc4:	39400021 	ldrb	w1, [x1]
    40000fc8:	39000001 	strb	w1, [x0]
    40000fcc:	b9416ba0 	ldr	w0, [x29, #360]
    40000fd0:	11000400 	add	w0, w0, #0x1
    40000fd4:	b9016ba0 	str	w0, [x29, #360]
    40000fd8:	b9816ba0 	ldrsw	x0, [x29, #360]
    40000fdc:	f940bba1 	ldr	x1, [x29, #368]
    40000fe0:	8b000020 	add	x0, x1, x0
    40000fe4:	39400000 	ldrb	w0, [x0]
    40000fe8:	7100001f 	cmp	w0, #0x0
    40000fec:	54fffc81 	b.ne	40000f7c <_kprintf+0x3fc>  // b.any
    40000ff0:	14000053 	b	4000113c <_kprintf+0x5bc>
    40000ff4:	f9400fa0 	ldr	x0, [x29, #24]
    40000ff8:	b9401800 	ldr	w0, [x0, #24]
    40000ffc:	f9400fa1 	ldr	x1, [x29, #24]
    40001000:	f9400021 	ldr	x1, [x1]
    40001004:	7100001f 	cmp	w0, #0x0
    40001008:	5400012b 	b.lt	4000102c <_kprintf+0x4ac>  // b.tstop
    4000100c:	aa0103e0 	mov	x0, x1
    40001010:	91002c00 	add	x0, x0, #0xb
    40001014:	927df000 	and	x0, x0, #0xfffffffffffffff8
    40001018:	aa0003e2 	mov	x2, x0
    4000101c:	f9400fa0 	ldr	x0, [x29, #24]
    40001020:	f9000002 	str	x2, [x0]
    40001024:	aa0103e0 	mov	x0, x1
    40001028:	14000014 	b	40001078 <_kprintf+0x4f8>
    4000102c:	11002003 	add	w3, w0, #0x8
    40001030:	f9400fa2 	ldr	x2, [x29, #24]
    40001034:	b9001843 	str	w3, [x2, #24]
    40001038:	f9400fa2 	ldr	x2, [x29, #24]
    4000103c:	b9401842 	ldr	w2, [x2, #24]
    40001040:	7100005f 	cmp	w2, #0x0
    40001044:	5400012d 	b.le	40001068 <_kprintf+0x4e8>
    40001048:	aa0103e0 	mov	x0, x1
    4000104c:	91002c00 	add	x0, x0, #0xb
    40001050:	927df000 	and	x0, x0, #0xfffffffffffffff8
    40001054:	aa0003e2 	mov	x2, x0
    40001058:	f9400fa0 	ldr	x0, [x29, #24]
    4000105c:	f9000002 	str	x2, [x0]
    40001060:	aa0103e0 	mov	x0, x1
    40001064:	14000005 	b	40001078 <_kprintf+0x4f8>
    40001068:	f9400fa1 	ldr	x1, [x29, #24]
    4000106c:	f9400421 	ldr	x1, [x1, #8]
    40001070:	93407c00 	sxtw	x0, w0
    40001074:	8b000020 	add	x0, x1, x0
    40001078:	b9400000 	ldr	w0, [x0]
    4000107c:	b90167a0 	str	w0, [x29, #356]
    40001080:	9100e3a0 	add	x0, x29, #0x38
    40001084:	52800142 	mov	w2, #0xa                   	// #10
    40001088:	aa0003e1 	mov	x1, x0
    4000108c:	b94167a0 	ldr	w0, [x29, #356]
    40001090:	97fffe62 	bl	40000a18 <itoa>
    40001094:	9100e3a0 	add	x0, x29, #0x38
    40001098:	f900bba0 	str	x0, [x29, #368]
    4000109c:	14000014 	b	400010ec <_kprintf+0x56c>
    400010a0:	f94017a0 	ldr	x0, [x29, #40]
    400010a4:	f100001f 	cmp	x0, #0x0
    400010a8:	540000a1 	b.ne	400010bc <_kprintf+0x53c>  // b.any
    400010ac:	f940bba0 	ldr	x0, [x29, #368]
    400010b0:	39400000 	ldrb	w0, [x0]
    400010b4:	97fffdef 	bl	40000870 <kputc>
    400010b8:	1400000a 	b	400010e0 <_kprintf+0x560>
    400010bc:	b9416fa0 	ldr	w0, [x29, #364]
    400010c0:	11000401 	add	w1, w0, #0x1
    400010c4:	b9016fa1 	str	w1, [x29, #364]
    400010c8:	93407c00 	sxtw	x0, w0
    400010cc:	f94017a1 	ldr	x1, [x29, #40]
    400010d0:	8b000020 	add	x0, x1, x0
    400010d4:	f940bba1 	ldr	x1, [x29, #368]
    400010d8:	39400021 	ldrb	w1, [x1]
    400010dc:	39000001 	strb	w1, [x0]
    400010e0:	f940bba0 	ldr	x0, [x29, #368]
    400010e4:	91000400 	add	x0, x0, #0x1
    400010e8:	f900bba0 	str	x0, [x29, #368]
    400010ec:	f940bba0 	ldr	x0, [x29, #368]
    400010f0:	39400000 	ldrb	w0, [x0]
    400010f4:	7100001f 	cmp	w0, #0x0
    400010f8:	54fffd41 	b.ne	400010a0 <_kprintf+0x520>  // b.any
    400010fc:	14000010 	b	4000113c <_kprintf+0x5bc>
    40001100:	f94017a0 	ldr	x0, [x29, #40]
    40001104:	f100001f 	cmp	x0, #0x0
    40001108:	54000081 	b.ne	40001118 <_kprintf+0x598>  // b.any
    4000110c:	528004a0 	mov	w0, #0x25                  	// #37
    40001110:	97fffdd8 	bl	40000870 <kputc>
    40001114:	1400000a 	b	4000113c <_kprintf+0x5bc>
    40001118:	b9416fa0 	ldr	w0, [x29, #364]
    4000111c:	11000401 	add	w1, w0, #0x1
    40001120:	b9016fa1 	str	w1, [x29, #364]
    40001124:	93407c00 	sxtw	x0, w0
    40001128:	f94017a1 	ldr	x1, [x29, #40]
    4000112c:	8b000020 	add	x0, x1, x0
    40001130:	528004a1 	mov	w1, #0x25                  	// #37
    40001134:	39000001 	strb	w1, [x0]
    40001138:	d503201f 	nop
    4000113c:	f940bfa0 	ldr	x0, [x29, #376]
    40001140:	91000400 	add	x0, x0, #0x1
    40001144:	f900bfa0 	str	x0, [x29, #376]
    40001148:	f940bfa0 	ldr	x0, [x29, #376]
    4000114c:	39400000 	ldrb	w0, [x0]
    40001150:	7100001f 	cmp	w0, #0x0
    40001154:	54ffd281 	b.ne	40000ba4 <_kprintf+0x24>  // b.any
    40001158:	f94017a0 	ldr	x0, [x29, #40]
    4000115c:	f100001f 	cmp	x0, #0x0
    40001160:	540000a0 	b.eq	40001174 <_kprintf+0x5f4>  // b.none
    40001164:	b9816fa0 	ldrsw	x0, [x29, #364]
    40001168:	f94017a1 	ldr	x1, [x29, #40]
    4000116c:	8b000020 	add	x0, x1, x0
    40001170:	3900001f 	strb	wzr, [x0]
    40001174:	d503201f 	nop
    40001178:	a8d87bfd 	ldp	x29, x30, [sp], #384
    4000117c:	d65f03c0 	ret

0000000040001180 <kprintf>:
    40001180:	a9b07bfd 	stp	x29, x30, [sp, #-256]!
    40001184:	910003fd 	mov	x29, sp
    40001188:	f9000fa0 	str	x0, [x29, #24]
    4000118c:	f90067a1 	str	x1, [x29, #200]
    40001190:	f9006ba2 	str	x2, [x29, #208]
    40001194:	f9006fa3 	str	x3, [x29, #216]
    40001198:	f90073a4 	str	x4, [x29, #224]
    4000119c:	f90077a5 	str	x5, [x29, #232]
    400011a0:	f9007ba6 	str	x6, [x29, #240]
    400011a4:	f9007fa7 	str	x7, [x29, #248]
    400011a8:	3d8013a0 	str	q0, [x29, #64]
    400011ac:	3d8017a1 	str	q1, [x29, #80]
    400011b0:	3d801ba2 	str	q2, [x29, #96]
    400011b4:	3d801fa3 	str	q3, [x29, #112]
    400011b8:	3d8023a4 	str	q4, [x29, #128]
    400011bc:	3d8027a5 	str	q5, [x29, #144]
    400011c0:	3d802ba6 	str	q6, [x29, #160]
    400011c4:	3d802fa7 	str	q7, [x29, #176]
    400011c8:	910403a0 	add	x0, x29, #0x100
    400011cc:	f90013a0 	str	x0, [x29, #32]
    400011d0:	910403a0 	add	x0, x29, #0x100
    400011d4:	f90017a0 	str	x0, [x29, #40]
    400011d8:	910303a0 	add	x0, x29, #0xc0
    400011dc:	f9001ba0 	str	x0, [x29, #48]
    400011e0:	128006e0 	mov	w0, #0xffffffc8            	// #-56
    400011e4:	b9003ba0 	str	w0, [x29, #56]
    400011e8:	12800fe0 	mov	w0, #0xffffff80            	// #-128
    400011ec:	b9003fa0 	str	w0, [x29, #60]
    400011f0:	910083a0 	add	x0, x29, #0x20
    400011f4:	aa0003e2 	mov	x2, x0
    400011f8:	f9400fa1 	ldr	x1, [x29, #24]
    400011fc:	d2800000 	mov	x0, #0x0                   	// #0
    40001200:	97fffe60 	bl	40000b80 <_kprintf>
    40001204:	d503201f 	nop
    40001208:	a8d07bfd 	ldp	x29, x30, [sp], #256
    4000120c:	d65f03c0 	ret

0000000040001210 <ksprintf>:
    40001210:	a9b17bfd 	stp	x29, x30, [sp, #-240]!
    40001214:	910003fd 	mov	x29, sp
    40001218:	f9000fa0 	str	x0, [x29, #24]
    4000121c:	f9000ba1 	str	x1, [x29, #16]
    40001220:	f90063a2 	str	x2, [x29, #192]
    40001224:	f90067a3 	str	x3, [x29, #200]
    40001228:	f9006ba4 	str	x4, [x29, #208]
    4000122c:	f9006fa5 	str	x5, [x29, #216]
    40001230:	f90073a6 	str	x6, [x29, #224]
    40001234:	f90077a7 	str	x7, [x29, #232]
    40001238:	3d8013a0 	str	q0, [x29, #64]
    4000123c:	3d8017a1 	str	q1, [x29, #80]
    40001240:	3d801ba2 	str	q2, [x29, #96]
    40001244:	3d801fa3 	str	q3, [x29, #112]
    40001248:	3d8023a4 	str	q4, [x29, #128]
    4000124c:	3d8027a5 	str	q5, [x29, #144]
    40001250:	3d802ba6 	str	q6, [x29, #160]
    40001254:	3d802fa7 	str	q7, [x29, #176]
    40001258:	9103c3a0 	add	x0, x29, #0xf0
    4000125c:	f90013a0 	str	x0, [x29, #32]
    40001260:	9103c3a0 	add	x0, x29, #0xf0
    40001264:	f90017a0 	str	x0, [x29, #40]
    40001268:	910303a0 	add	x0, x29, #0xc0
    4000126c:	f9001ba0 	str	x0, [x29, #48]
    40001270:	128005e0 	mov	w0, #0xffffffd0            	// #-48
    40001274:	b9003ba0 	str	w0, [x29, #56]
    40001278:	12800fe0 	mov	w0, #0xffffff80            	// #-128
    4000127c:	b9003fa0 	str	w0, [x29, #60]
    40001280:	910083a0 	add	x0, x29, #0x20
    40001284:	aa0003e2 	mov	x2, x0
    40001288:	f9400ba1 	ldr	x1, [x29, #16]
    4000128c:	f9400fa0 	ldr	x0, [x29, #24]
    40001290:	97fffe3c 	bl	40000b80 <_kprintf>
    40001294:	d503201f 	nop
    40001298:	a8cf7bfd 	ldp	x29, x30, [sp], #240
    4000129c:	d65f03c0 	ret

00000000400012a0 <kmain>:
    400012a0:	a9bf7bfd 	stp	x29, x30, [sp, #-16]!
    400012a4:	910003fd 	mov	x29, sp
    400012a8:	90000000 	adrp	x0, 40001000 <_kprintf+0x480>
    400012ac:	910c8000 	add	x0, x0, #0x320
    400012b0:	97ffffb4 	bl	40001180 <kprintf>
    400012b4:	90000000 	adrp	x0, 40001000 <_kprintf+0x480>
    400012b8:	910d0000 	add	x0, x0, #0x340
    400012bc:	97ffffb1 	bl	40001180 <kprintf>
    400012c0:	97fffb59 	bl	40000024 <enable_exceptions>
    400012c4:	d4000001 	svc	#0x0
    400012c8:	90000000 	adrp	x0, 40001000 <_kprintf+0x480>
    400012cc:	910d4000 	add	x0, x0, #0x350
    400012d0:	97ffffac 	bl	40001180 <kprintf>
    400012d4:	d503201f 	nop
    400012d8:	a8c17bfd 	ldp	x29, x30, [sp], #16
    400012dc:	d65f03c0 	ret

00000000400012e0 <kinterrupt>:
    400012e0:	a9bf7bfd 	stp	x29, x30, [sp, #-16]!
    400012e4:	910003fd 	mov	x29, sp
    400012e8:	90000000 	adrp	x0, 40001000 <_kprintf+0x480>
    400012ec:	910dc000 	add	x0, x0, #0x370
    400012f0:	97ffffa4 	bl	40001180 <kprintf>
    400012f4:	d503201f 	nop
    400012f8:	a8c17bfd 	ldp	x29, x30, [sp], #16
    400012fc:	d65f03c0 	ret

Disassembly of section .rodata:

0000000040001300 <UART0DR>:
    40001300:	09000000 	.word	0x09000000
    40001304:	00000000 	.word	0x00000000
    40001308:	33323130 	.word	0x33323130
    4000130c:	37363534 	.word	0x37363534
    40001310:	42413938 	.word	0x42413938
    40001314:	46454443 	.word	0x46454443
	...
    40001320:	636c6557 	.word	0x636c6557
    40001324:	20656d6f 	.word	0x20656d6f
    40001328:	6b206f74 	.word	0x6b206f74
    4000132c:	2d0a736f 	.word	0x2d0a736f
    40001330:	2d2d2d2d 	.word	0x2d2d2d2d
    40001334:	2d2d2d2d 	.word	0x2d2d2d2d
    40001338:	2d2d2d2d 	.word	0x2d2d2d2d
    4000133c:	000a2d2d 	.word	0x000a2d2d
    40001340:	74736554 	.word	0x74736554
    40001344:	20676e69 	.word	0x20676e69
    40001348:	77732061 	.word	0x77732061
    4000134c:	00203a69 	.word	0x00203a69
    40001350:	2d2d2d2d 	.word	0x2d2d2d2d
    40001354:	2d2d2d2d 	.word	0x2d2d2d2d
    40001358:	2d2d2d2d 	.word	0x2d2d2d2d
    4000135c:	0a2d2d2d 	.word	0x0a2d2d2d
    40001360:	20736f6b 	.word	0x20736f6b
    40001364:	74697865 	.word	0x74697865
    40001368:	0a676e69 	.word	0x0a676e69
    4000136c:	00000000 	.word	0x00000000
    40001370:	65746e49 	.word	0x65746e49
    40001374:	70757272 	.word	0x70757272
    40001378:	61632074 	.word	0x61632074
    4000137c:	64656c6c 	.word	0x64656c6c
    40001380:	Address 0x0000000040001380 is out of bounds.


Disassembly of section .debug_line:

0000000000000000 <.debug_line>:
   0:	0000007d 	.inst	0x0000007d ; undefined
   4:	001d0002 	.inst	0x001d0002 ; undefined
   8:	01040000 	.inst	0x01040000 ; undefined
   c:	000d0efb 	.inst	0x000d0efb ; undefined
  10:	01010101 	.inst	0x01010101 ; undefined
  14:	01000000 	.inst	0x01000000 ; undefined
  18:	00010000 	.inst	0x00010000 ; undefined
  1c:	746f6f62 	.inst	0x746f6f62 ; undefined
  20:	0000732e 	.inst	0x0000732e ; undefined
  24:	00000000 	.inst	0x00000000 ; undefined
  28:	00000209 	.inst	0x00000209 ; undefined
  2c:	00004000 	.inst	0x00004000 ; undefined
  30:	21150000 	.inst	0x21150000 ; undefined
  34:	23212121 	.inst	0x23212121 ; undefined
  38:	25212121 	.inst	0x25212121 ; undefined
  3c:	21212321 	.inst	0x21212321 ; undefined
  40:	21232121 	.inst	0x21232121 ; undefined
  44:	d8201b03 	prfm	pldl2strm, 403a4 <_main-0x3ffbfc5c>
  48:	e608e608 	.inst	0xe608e608 ; undefined
  4c:	e608e808 	.inst	0xe608e808 ; undefined
  50:	e608e608 	.inst	0xe608e608 ; undefined
  54:	e608e808 	.inst	0xe608e808 ; undefined
  58:	e608e608 	.inst	0xe608e608 ; undefined
  5c:	e608e808 	.inst	0xe608e808 ; undefined
  60:	e608e608 	.inst	0xe608e608 ; undefined
  64:	2121e808 	.inst	0x2121e808 ; undefined
  68:	21212121 	.inst	0x21212121 ; undefined
  6c:	23212121 	.inst	0x23212121 ; undefined
  70:	21212221 	.inst	0x21212221 ; undefined
  74:	21212121 	.inst	0x21212121 ; undefined
  78:	22212121 	.inst	0x22212121 ; undefined
  7c:	01000602 	.inst	0x01000602 ; undefined
  80:	0001cd01 	.inst	0x0001cd01 ; undefined
  84:	b5000200 	cbnz	x0, c4 <_main-0x3fffff3c>
  88:	04000000 	add	z0.b, p0/m, z0.b, z0.b
  8c:	0d0efb01 	.inst	0x0d0efb01 ; undefined
  90:	01010100 	.inst	0x01010100 ; undefined
  94:	00000001 	.inst	0x00000001 ; undefined
  98:	01000001 	.inst	0x01000001 ; undefined
  9c:	72616f62 	.inst	0x72616f62 ; undefined
  a0:	762f7364 	.inst	0x762f7364 ; undefined
  a4:	00747269 	.inst	0x00747269 ; undefined
  a8:	746e6d2f 	.inst	0x746e6d2f ; undefined
  ac:	6f6f742f 	uqshl	v15.2d, v1.2d, #47
  b0:	6168636c 	.inst	0x6168636c ; undefined
  b4:	672f6e69 	.inst	0x672f6e69 ; undefined
  b8:	6c2d6363 	stnp	d3, d24, [x27, #-304]
  bc:	72616e69 	.inst	0x72616e69 ; undefined
  c0:	2e372d6f 	uqsub	v15.8b, v11.8b, v23.8b
  c4:	2d312e32 	stp	s18, s11, [x17, #-120]
  c8:	37313032 	tbnz	w18, #6, 26cc <_main-0x3fffd934>
  cc:	2d31312e 	stp	s14, s12, [x9, #-120]
  d0:	5f363878 	.inst	0x5f363878 ; undefined
  d4:	615f3436 	.inst	0x615f3436 ; undefined
  d8:	68637261 	.inst	0x68637261 ; undefined
  dc:	652d3436 	.inst	0x652d3436 ; undefined
  e0:	6c2f666c 	stnp	d12, d25, [x19, #-272]
  e4:	672f6269 	.inst	0x672f6269 ; undefined
  e8:	612f6363 	.inst	0x612f6363 ; undefined
  ec:	68637261 	.inst	0x68637261 ; undefined
  f0:	652d3436 	.inst	0x652d3436 ; undefined
  f4:	372f666c 	tbnz	w12, #5, ffffffffffffedc0 <stack_top+0xffffffff817fda30>
  f8:	312e322e 	adds	w14, w17, #0xb8c
  fc:	636e692f 	.inst	0x636e692f ; undefined
 100:	6564756c 	fnmls	z12.h, p5/m, z11.h, z4.h
 104:	6f620000 	mla	v0.8h, v0.8h, v2.h[2]
 108:	2e647261 	uabdl	v1.4s, v19.4h, v4.4h
 10c:	00010068 	.inst	0x00010068 ; undefined
 110:	69747500 	ldpsw	x0, x29, [x8, #-96]
 114:	00682e6c 	.inst	0x00682e6c ; undefined
 118:	6d000000 	stp	d0, d0, [x0]
 11c:	2e6e6961 	.inst	0x2e6e6961 ; undefined
 120:	00000063 	.inst	0x00000063 ; undefined
 124:	64747300 	.inst	0x64747300 ; undefined
 128:	2e677261 	uabdl	v1.4s, v19.4h, v7.4h
 12c:	00020068 	.inst	0x00020068 ; undefined
 130:	75623c00 	.inst	0x75623c00 ; undefined
 134:	2d746c69 	ldp	s9, s27, [x3, #-96]
 138:	003e6e69 	.inst	0x003e6e69 ; NYI
 13c:	00000000 	.inst	0x00000000 ; undefined
 140:	70020900 	adr	x0, 4263 <_main-0x3fffbd9d>
 144:	00400008 	.inst	0x00400008 ; undefined
 148:	17000000 	b	fffffffffc000148 <stack_top+0xffffffff7d7fedb8>
 14c:	02043d2f 	.inst	0x02043d2f ; undefined
 150:	3d213d43 	str	b3, [x10, #2127]
 154:	423e4e3a 	.inst	0x423e4e3a ; undefined
 158:	0200303f 	.inst	0x0200303f ; undefined
 15c:	004b0304 	.inst	0x004b0304 ; undefined
 160:	67030402 	.inst	0x67030402 ; undefined
 164:	03040200 	.inst	0x03040200 ; undefined
 168:	04020083 	.inst	0x04020083 ; undefined
 16c:	02003903 	.inst	0x02003903 ; undefined
 170:	3c060104 	stur	b4, [x8, #96]
 174:	214b4106 	.inst	0x214b4106 ; undefined
 178:	3e213d30 	.inst	0x3e213d30 ; undefined
 17c:	5a835921 	.inst	0x5a835921 ; undefined
 180:	3c7a033d 	.inst	0x3c7a033d ; undefined
 184:	21593e52 	.inst	0x21593e52 ; undefined
 188:	4b833d23 	sub	w3, w9, w3, asr #15
 18c:	04020033 	.inst	0x04020033 ; undefined
 190:	063c0601 	.inst	0x063c0601 ; undefined
 194:	21402f3d 	.inst	0x21402f3d ; undefined
 198:	04020075 	.inst	0x04020075 ; undefined
 19c:	003c0601 	.inst	0x003c0601 ; NYI
 1a0:	58020402 	ldr	x2, 4220 <_main-0x3fffbde0>
 1a4:	04040200 	.inst	0x04040200 ; undefined
 1a8:	0402004a 	.inst	0x0402004a ; undefined
 1ac:	47750604 	.inst	0x47750604 ; undefined
 1b0:	04020043 	.inst	0x04020043 ; undefined
 1b4:	063c0601 	.inst	0x063c0601 ; undefined
 1b8:	213e4d84 	.inst	0x213e4d84 ; undefined
 1bc:	3d225f30 	str	b16, [x25, #2199]
 1c0:	9010034b 	adrp	x11, 20068000 <_main-0x1ff98000>
 1c4:	3d207203 	str	b3, [x16, #2076]
 1c8:	22841e32 	.inst	0x22841e32 ; undefined
 1cc:	841e323d 	ldff1sb	{z29.s}, p4/z, [x17, z30.s, uxtw]
 1d0:	3d4b2324 	ldr	b4, [x25, #712]
 1d4:	23921e40 	.inst	0x23921e40 ; undefined
 1d8:	23023008 	.inst	0x23023008 ; undefined
 1dc:	1e403d13 	.inst	0x1e403d13 ; undefined
 1e0:	23022292 	.inst	0x23022292 ; undefined
 1e4:	683d2f13 	.inst	0x683d2f13 ; undefined
 1e8:	02040200 	.inst	0x02040200 ; undefined
 1ec:	040200a8 	.inst	0x040200a8 ; undefined
 1f0:	063c0601 	.inst	0x063c0601 ; undefined
 1f4:	2302226d 	.inst	0x2302226d ; undefined
 1f8:	3d2f5913 	str	b19, [x8, #3030]
 1fc:	04020068 	.inst	0x04020068 ; undefined
 200:	0200a802 	.inst	0x0200a802 ; undefined
 204:	3c060104 	stur	b4, [x8, #96]
 208:	02226d06 	.inst	0x02226d06 ; undefined
 20c:	2f591423 	.inst	0x2f591423 ; undefined
 210:	924c3d21 	and	x1, x9, #0xfff000000000000f
 214:	523c7a03 	eor	w3, w16, #0xfffffff7
 218:	1e323d22 	fcsel	s2, s9, s18, cc  // cc = lo, ul, last
 21c:	04020084 	.inst	0x04020084 ; undefined
 220:	7fae0302 	.inst	0x7fae0302 ; undefined
 224:	04020020 	.inst	0x04020020 ; undefined
 228:	063c0601 	.inst	0x063c0601 ; undefined
 22c:	4a00d603 	.inst	0x4a00d603 ; undefined
 230:	083e4c3d 	.inst	0x083e4c3d ; undefined
 234:	3e5a9f22 	.inst	0x3e5a9f22 ; undefined
 238:	5a9f2208 	csinv	w8, w16, wzr, cs  // cs = hs, nlast
 23c:	ba030304 	adcs	x4, x24, x3
 240:	032f3c7e 	.inst	0x032f3c7e ; undefined
 244:	213d3c09 	.inst	0x213d3c09 ; undefined
 248:	2f3e3d22 	.inst	0x2f3e3d22 ; undefined
 24c:	0003023d 	.inst	0x0003023d ; undefined
 250:	Address 0x0000000000000250 is out of bounds.


Disassembly of section .debug_info:

0000000000000000 <.debug_info>:
   0:	00000038 	.inst	0x00000038 ; undefined
   4:	00000002 	.inst	0x00000002 ; undefined
   8:	01080000 	.inst	0x01080000 ; undefined
   c:	00000000 	.inst	0x00000000 ; undefined
  10:	40000000 	.inst	0x40000000 ; undefined
  14:	00000000 	.inst	0x00000000 ; undefined
  18:	40000870 	.inst	0x40000870 ; undefined
  1c:	00000000 	.inst	0x00000000 ; undefined
  20:	746f6f62 	.inst	0x746f6f62 ; undefined
  24:	2f00732e 	.inst	0x2f00732e ; undefined
  28:	00746e6d 	.inst	0x00746e6d ; undefined
  2c:	20554e47 	.inst	0x20554e47 ; undefined
  30:	32205341 	orr	w1, w26, #0x1fffff
  34:	2e38322e 	usubw	v14.8h, v17.8h, v24.8b
  38:	80010032 	.inst	0x80010032 ; undefined
  3c:	0000044b 	.inst	0x0000044b ; undefined
  40:	00140004 	.inst	0x00140004 ; undefined
  44:	01080000 	.inst	0x01080000 ; undefined
  48:	000000b8 	.inst	0x000000b8 ; undefined
  4c:	0001330c 	.inst	0x0001330c ; undefined
  50:	00001c00 	.inst	0x00001c00 ; undefined
  54:	00087000 	.inst	0x00087000 ; undefined
  58:	00000040 	.inst	0x00000040 ; undefined
  5c:	000a9000 	.inst	0x000a9000 ; undefined
  60:	00000000 	.inst	0x00000000 ; undefined
  64:	00008100 	.inst	0x00008100 ; undefined
  68:	003a0200 	.inst	0x003a0200 ; NYI
  6c:	28040000 	stnp	w0, w0, [x0, #32]
  70:	00000038 	.inst	0x00000038 ; undefined
  74:	00011f03 	.inst	0x00011f03 ; undefined
  78:	00052000 	.inst	0x00052000 ; undefined
  7c:	00000077 	.inst	0x00000077 ; undefined
  80:	00017504 	.inst	0x00017504 ; undefined
  84:	00007700 	.inst	0x00007700 ; undefined
  88:	16040000 	b	fffffffff8100088 <stack_top+0xffffffff798fecf8>
  8c:	77000001 	.inst	0x77000001 ; undefined
  90:	08000000 	stxrb	w0, w0, [x0]
  94:	00015204 	.inst	0x00015204 ; undefined
  98:	00007700 	.inst	0x00007700 ; undefined
  9c:	a0041000 	.inst	0xa0041000 ; undefined
  a0:	79000000 	strh	w0, [x0]
  a4:	18000000 	ldr	w0, a4 <_main-0x3fffff5c>
  a8:	00012904 	.inst	0x00012904 ; undefined
  ac:	00007900 	.inst	0x00007900 ; undefined
  b0:	05001c00 	orr	z0.h, z0.h, #0x2000
  b4:	05040608 	.inst	0x05040608 ; undefined
  b8:	00746e69 	.inst	0x00746e69 ; undefined
  bc:	00012102 	.inst	0x00012102 ; undefined
  c0:	2d630400 	ldp	s0, s1, [x0, #-232]
  c4:	07000000 	.inst	0x07000000 ; undefined
  c8:	00000032 	.inst	0x00000032 ; undefined
  cc:	00a60401 	.inst	0x00a60401 ; undefined
  d0:	03090000 	.inst	0x03090000 ; undefined
  d4:	40001300 	.inst	0x40001300 ; undefined
  d8:	00000000 	.inst	0x00000000 ; undefined
  dc:	00b20808 	.inst	0x00b20808 ; undefined
  e0:	a0090000 	.inst	0xa0090000 ; undefined
  e4:	0a000000 	and	w0, w0, w0
  e8:	00690704 	.inst	0x00690704 ; undefined
  ec:	ab0b0000 	adds	x0, x0, x11
  f0:	0a000000 	and	w0, w0, w0
  f4:	004b0601 	.inst	0x004b0601 ; undefined
  f8:	020a0000 	.inst	0x020a0000 ; undefined
  fc:	00014805 	.inst	0x00014805 ; undefined
 100:	05080a00 	.inst	0x05080a00 ; undefined
 104:	00000166 	.inst	0x00000166 ; undefined
 108:	4908010a 	.inst	0x4908010a ; undefined
 10c:	0a000000 	and	w0, w0, w0
 110:	007b0702 	.inst	0x007b0702 ; undefined
 114:	080a0000 	stxrb	w10, w0, [x0]
 118:	00006407 	.inst	0x00006407 ; undefined
 11c:	00210c00 	.inst	0x00210c00 ; NYI
 120:	17030000 	b	fffffffffc0c0120 <stack_top+0xffffffff7d8bed90>
 124:	400012e0 	.inst	0x400012e0 ; undefined
 128:	00000000 	.inst	0x00000000 ; undefined
 12c:	00000020 	.inst	0x00000020 ; undefined
 130:	00000000 	.inst	0x00000000 ; undefined
 134:	090c9c01 	.inst	0x090c9c01 ; undefined
 138:	03000000 	.inst	0x03000000 ; undefined
 13c:	0012a006 	.inst	0x0012a006 ; undefined
 140:	00000040 	.inst	0x00000040 ; undefined
 144:	00004000 	.inst	0x00004000 ; undefined
 148:	00000000 	.inst	0x00000000 ; undefined
 14c:	0d9c0100 	st1	{v0.b}[0], [x8], x28
 150:	00000000 	.inst	0x00000000 ; undefined
 154:	1210c702 	and	w2, w24, #0x3030303
 158:	00004000 	.inst	0x00004000 ; undefined
 15c:	00900000 	.inst	0x00900000 ; undefined
 160:	00000000 	.inst	0x00000000 ; undefined
 164:	9c010000 	ldr	q0, 2164 <_main-0x3fffde9c>
 168:	0000015f 	.inst	0x0000015f ; undefined
 16c:	6675620e 	.inst	0x6675620e ; undefined
 170:	5fc70200 	.inst	0x5fc70200 ; undefined
 174:	03000001 	.inst	0x03000001 ; undefined
 178:	0f7ea891 	smull	v17.4s, v4.4h, v14.h[7]
 17c:	00000099 	.inst	0x00000099 ; undefined
 180:	0171c702 	.inst	0x0171c702 ; undefined
 184:	91030000 	add	x0, x0, #0xc0
 188:	11107ea0 	add	w0, w21, #0x41f
 18c:	00000143 	.inst	0x00000143 ; undefined
 190:	0038c802 	.inst	0x0038c802 ; NYI
 194:	91030000 	add	x0, x0, #0xc0
 198:	08007eb0 	stxrb	w0, w16, [x21]
 19c:	00016508 	.inst	0x00016508 ; undefined
 1a0:	08010a00 	stxrb	w1, w0, [x16]
 1a4:	00000052 	.inst	0x00000052 ; undefined
 1a8:	00016509 	.inst	0x00016509 ; undefined
 1ac:	6c080800 	stnp	d0, d2, [x0, #128]
 1b0:	0d000001 	st1	{v1.b}[0], [x0]
 1b4:	000000b0 	.inst	0x000000b0 ; undefined
 1b8:	1180c002 	.inst	0x1180c002 ; undefined
 1bc:	00004000 	.inst	0x00004000 ; undefined
 1c0:	00900000 	.inst	0x00900000 ; undefined
 1c4:	00000000 	.inst	0x00000000 ; undefined
 1c8:	9c010000 	ldr	q0, 21c8 <_main-0x3fffde38>
 1cc:	000001b4 	.inst	0x000001b4 ; undefined
 1d0:	0000990f 	.inst	0x0000990f ; undefined
 1d4:	71c00200 	.inst	0x71c00200 ; undefined
 1d8:	03000001 	.inst	0x03000001 ; undefined
 1dc:	107e9891 	adr	x17, fd4ec <_main-0x3ff02b14>
 1e0:	00014311 	.inst	0x00014311 ; undefined
 1e4:	38c10200 	ldursb	w0, [x16, #16]
 1e8:	03000000 	.inst	0x03000000 ; undefined
 1ec:	007ea091 	.inst	0x007ea091 ; undefined
 1f0:	0000af0d 	.inst	0x0000af0d ; undefined
 1f4:	805c0200 	.inst	0x805c0200 ; undefined
 1f8:	0040000b 	.inst	0x0040000b ; undefined
 1fc:	00000000 	.inst	0x00000000 ; undefined
 200:	00000006 	.inst	0x00000006 ; undefined
 204:	01000000 	.inst	0x01000000 ; undefined
 208:	00026b9c 	.inst	0x00026b9c ; undefined
 20c:	75620e00 	.inst	0x75620e00 ; undefined
 210:	5c020066 	ldr	d6, 421c <_main-0x3fffbde4>
 214:	0000015f 	.inst	0x0000015f ; undefined
 218:	7da89103 	.inst	0x7da89103 ; undefined
 21c:	0000990f 	.inst	0x0000990f ; undefined
 220:	715c0200 	subs	w0, w16, #0x700, lsl #12
 224:	03000001 	.inst	0x03000001 ; undefined
 228:	0f7da091 	smull	v17.4s, v4.4h, v13.h[3]
 22c:	00000143 	.inst	0x00000143 ; undefined
 230:	026b5c02 	.inst	0x026b5c02 ; undefined
 234:	91030000 	add	x0, x0, #0xc0
 238:	69127d98 	.inst	0x69127d98 ; undefined
 23c:	795d0200 	ldrh	w0, [x16, #3712]
 240:	02000000 	.inst	0x02000000 ; undefined
 244:	70126491 	adr	x17, 24ed7 <_main-0x3ffdb129>
 248:	715e0200 	subs	w0, w16, #0x780, lsl #12
 24c:	02000001 	.inst	0x02000001 ; undefined
 250:	73127891 	.inst	0x73127891 ; undefined
 254:	5f5f0200 	.inst	0x5f5f0200 ; undefined
 258:	02000001 	.inst	0x02000001 ; undefined
 25c:	78127091 	sturh	w17, [x4, #-217]
 260:	79600200 	ldrh	w0, [x16, #4096]
 264:	02000000 	.inst	0x02000000 ; undefined
 268:	79126c91 	strh	w17, [x4, #2358]
 26c:	79600200 	ldrh	w0, [x16, #4096]
 270:	02000000 	.inst	0x02000000 ; undefined
 274:	15116891 	b	445a4b8 <_main-0x3bba5b48>
 278:	02000000 	.inst	0x02000000 ; undefined
 27c:	00027161 	.inst	0x00027161 ; undefined
 280:	e0910300 	.inst	0xe0910300 ; undefined
 284:	0cf8137d 	.inst	0x0cf8137d ; undefined
 288:	00004000 	.inst	0x00004000 ; undefined
 28c:	04440000 	.inst	0x04440000 ; undefined
 290:	00000000 	.inst	0x00000000 ; undefined
 294:	76110000 	.inst	0x76110000 ; undefined
 298:	02000000 	.inst	0x02000000 ; undefined
 29c:	000281a5 	.inst	0x000281a5 ; undefined
 2a0:	b8910300 	ldursw	x0, [x24, #-240]
 2a4:	0800007d 	stxrb	w0, w29, [x3]
 2a8:	00008008 	.inst	0x00008008 ; undefined
 2ac:	01651400 	.inst	0x01651400 ; undefined
 2b0:	02810000 	.inst	0x02810000 ; undefined
 2b4:	da150000 	sbc	x0, x0, x21
 2b8:	ff000000 	.inst	0xff000000 ; undefined
 2bc:	01651400 	.inst	0x01651400 ; undefined
 2c0:	02910000 	.inst	0x02910000 ; undefined
 2c4:	da150000 	sbc	x0, x0, x21
 2c8:	20000000 	.inst	0x20000000 ; undefined
 2cc:	00941600 	.inst	0x00941600 ; undefined
 2d0:	38020000 	sturb	w0, [x0, #32]
 2d4:	0000015f 	.inst	0x0000015f ; undefined
 2d8:	40000a18 	.inst	0x40000a18 ; undefined
 2dc:	00000000 	.inst	0x00000000 ; undefined
 2e0:	00000168 	.inst	0x00000168 ; undefined
 2e4:	00000000 	.inst	0x00000000 ; undefined
 2e8:	03179c01 	.inst	0x03179c01 ; undefined
 2ec:	6e0e0000 	ext	v0.16b, v0.16b, v14.16b, #0
 2f0:	02006d75 	.inst	0x02006d75 ; undefined
 2f4:	00007938 	.inst	0x00007938 ; undefined
 2f8:	6c910200 	stp	d0, d0, [x16], #272
 2fc:	7274730e 	.inst	0x7274730e ; undefined
 300:	5f380200 	.inst	0x5f380200 ; undefined
 304:	02000001 	.inst	0x02000001 ; undefined
 308:	aa0f6091 	orr	x17, x4, x15, lsl #24
 30c:	02000000 	.inst	0x02000000 ; undefined
 310:	00007938 	.inst	0x00007938 ; undefined
 314:	68910200 	.inst	0x68910200 ; undefined
 318:	02006912 	.inst	0x02006912 ; undefined
 31c:	00007939 	.inst	0x00007939 ; undefined
 320:	7c910200 	.inst	0x7c910200 ; undefined
 324:	00015b11 	.inst	0x00015b11 ; undefined
 328:	173a0200 	b	fffffffffce80b28 <stack_top+0xffffffff7e67f798>
 32c:	02000003 	.inst	0x02000003 ; undefined
 330:	a8137b91 	stnp	x17, x30, [x28, #304]
 334:	0040000a 	.inst	0x0040000a ; undefined
 338:	78000000 	sturh	w0, [x0]
 33c:	00000000 	.inst	0x00000000 ; undefined
 340:	12000000 	and	w0, w0, #0x1
 344:	006d6572 	.inst	0x006d6572 ; undefined
 348:	00794c02 	.inst	0x00794c02 ; undefined
 34c:	91020000 	add	x0, x0, #0x80
 350:	0a000074 	and	w20, w3, w0
 354:	000f0201 	.inst	0x000f0201 ; undefined
 358:	57170000 	.inst	0x57170000 ; undefined
 35c:	02000000 	.inst	0x02000000 ; undefined
 360:	00097c2a 	.inst	0x00097c2a ; undefined
 364:	00000040 	.inst	0x00000040 ; undefined
 368:	00009c00 	.inst	0x00009c00 ; undefined
 36c:	00000000 	.inst	0x00000000 ; undefined
 370:	829c0100 	.inst	0x829c0100 ; undefined
 374:	0e000003 	tbl	v3.8b, {v0.16b}, v0.8b
 378:	00727473 	.inst	0x00727473 ; undefined
 37c:	015f2a02 	.inst	0x015f2a02 ; undefined
 380:	91020000 	add	x0, x0, #0x80
 384:	017d0f68 	.inst	0x017d0f68 ; undefined
 388:	2a020000 	orr	w0, w0, w2
 38c:	00000079 	.inst	0x00000079 ; undefined
 390:	11649102 	add	w2, w8, #0x924, lsl #12
 394:	0000002c 	.inst	0x0000002c ; undefined
 398:	00792b02 	.inst	0x00792b02 ; undefined
 39c:	91020000 	add	x0, x0, #0x80
 3a0:	6e65127c 	uaddw2	v28.4s, v19.4s, v5.8h
 3a4:	2c020064 	stnp	s4, s0, [x3, #16]
 3a8:	00000079 	.inst	0x00000079 ; undefined
 3ac:	11789102 	add	w2, w8, #0xe24, lsl #12
 3b0:	00000076 	.inst	0x00000076 ; undefined
 3b4:	01652d02 	.inst	0x01652d02 ; undefined
 3b8:	91020000 	add	x0, x0, #0x80
 3bc:	5f180077 	.inst	0x5f180077 ; undefined
 3c0:	02000000 	.inst	0x02000000 ; undefined
 3c4:	00015f16 	.inst	0x00015f16 ; undefined
 3c8:	0008d400 	.inst	0x0008d400 ; undefined
 3cc:	00000040 	.inst	0x00000040 ; undefined
 3d0:	0000a800 	.inst	0x0000a800 ; undefined
 3d4:	00000000 	.inst	0x00000000 ; undefined
 3d8:	fc9c0100 	.inst	0xfc9c0100 ; undefined
 3dc:	0e000003 	tbl	v3.8b, {v0.16b}, v0.8b
 3e0:	16020069 	b	fffffffff8080584 <stack_top+0xffffffff7987f1f4>
 3e4:	00000079 	.inst	0x00000079 ; undefined
 3e8:	0e5c9102 	.inst	0x0e5c9102 ; undefined
 3ec:	00667562 	.inst	0x00667562 ; undefined
 3f0:	015f1602 	.inst	0x015f1602 ; undefined
 3f4:	91020000 	add	x0, x0, #0x80
 3f8:	006e1250 	.inst	0x006e1250 ; undefined
 3fc:	00791702 	.inst	0x00791702 ; undefined
 400:	91020000 	add	x0, x0, #0x80
 404:	0062127c 	.inst	0x0062127c ; undefined
 408:	00791802 	.inst	0x00791802 ; undefined
 40c:	91020000 	add	x0, x0, #0x80
 410:	007a1268 	.inst	0x007a1268 ; undefined
 414:	00791902 	.inst	0x00791902 ; undefined
 418:	91020000 	add	x0, x0, #0x80
 41c:	00731278 	.inst	0x00731278 ; undefined
 420:	00791a02 	.inst	0x00791a02 ; undefined
 424:	91020000 	add	x0, x0, #0x80
 428:	013a116c 	.inst	0x013a116c ; undefined
 42c:	1c020000 	ldr	s0, 442c <_main-0x3fffbbd4>
 430:	00000171 	.inst	0x00000171 ; undefined
 434:	00709102 	.inst	0x00709102 ; undefined
 438:	00008e0d 	.inst	0x00008e0d ; undefined
 43c:	900f0200 	adrp	x0, 1e040000 <_main-0x21fc0000>
 440:	00400008 	.inst	0x00400008 ; undefined
 444:	44000000 	.inst	0x44000000 ; undefined
 448:	00000000 	.inst	0x00000000 ; undefined
 44c:	01000000 	.inst	0x01000000 ; undefined
 450:	0004289c 	.inst	0x0004289c ; undefined
 454:	75620e00 	.inst	0x75620e00 ; undefined
 458:	0f020066 	.inst	0x0f020066 ; undefined
 45c:	00000171 	.inst	0x00000171 ; undefined
 460:	00789102 	.inst	0x00789102 ; undefined
 464:	00016f19 	.inst	0x00016f19 ; undefined
 468:	70060100 	adr	x0, c48b <_main-0x3fff3b75>
 46c:	00400008 	.inst	0x00400008 ; undefined
 470:	20000000 	.inst	0x20000000 ; undefined
 474:	00000000 	.inst	0x00000000 ; undefined
 478:	01000000 	.inst	0x01000000 ; undefined
 47c:	00630e9c 	.inst	0x00630e9c ; undefined
 480:	016c0601 	.inst	0x016c0601 ; undefined
 484:	91020000 	add	x0, x0, #0x80
 488:	Address 0x0000000000000488 is out of bounds.


Disassembly of section .debug_abbrev:

0000000000000000 <.debug_abbrev>:
   0:	10001101 	adr	x1, 220 <_main-0x3ffffde0>
   4:	12011106 	and	w6, w8, #0x8000000f
   8:	1b080301 	madd	w1, w24, w8, w0
   c:	13082508 	sbfx	w8, w8, #8, #2
  10:	00000005 	.inst	0x00000005 ; undefined
  14:	25011101 	cmpge	p1.b, p4/z, z8.b, #1
  18:	030b130e 	.inst	0x030b130e ; undefined
  1c:	110e1b0e 	add	w14, w24, #0x386
  20:	10071201 	adr	x1, e260 <_main-0x3fff1da0>
  24:	02000017 	.inst	0x02000017 ; undefined
  28:	0e030016 	tbl	v22.8b, {v0.16b}, v3.8b
  2c:	0b3b0b3a 	add	w26, w25, w27, uxtb #2
  30:	00001349 	.inst	0x00001349 ; undefined
  34:	03011303 	.inst	0x03011303 ; undefined
  38:	3a0b0b0e 	.inst	0x3a0b0b0e ; undefined
  3c:	010b3b0b 	.inst	0x010b3b0b ; undefined
  40:	04000013 	add	z19.b, p0/m, z19.b, z0.b
  44:	0e03000d 	tbl	v13.8b, {v0.16b}, v3.8b
  48:	0b381349 	add	w9, w26, w24, uxtb #4
  4c:	00001934 	.inst	0x00001934 ; undefined
  50:	0b000f05 	add	w5, w24, w0, lsl #3
  54:	0600000b 	.inst	0x0600000b ; undefined
  58:	0b0b0024 	add	w4, w1, w11
  5c:	08030b3e 	stxrb	w3, w30, [x25]
  60:	34070000 	cbz	w0, e060 <_main-0x3fff1fa0>
  64:	3a0e0300 	adcs	w0, w24, w14
  68:	490b3b0b 	.inst	0x490b3b0b ; undefined
  6c:	02193f13 	.inst	0x02193f13 ; undefined
  70:	08000018 	stxrb	w0, w24, [x0]
  74:	0b0b000f 	add	w15, w0, w11
  78:	00001349 	.inst	0x00001349 ; undefined
  7c:	49002609 	.inst	0x49002609 ; undefined
  80:	0a000013 	and	w19, w0, w0
  84:	0b0b0024 	add	w4, w1, w11
  88:	0e030b3e 	.inst	0x0e030b3e ; undefined
  8c:	350b0000 	cbnz	w0, 1608c <_main-0x3ffe9f74>
  90:	00134900 	.inst	0x00134900 ; undefined
  94:	002e0c00 	.inst	0x002e0c00 ; NYI
  98:	0e03193f 	uzp1	v31.8b, v9.8b, v3.8b
  9c:	0b3b0b3a 	add	w26, w25, w27, uxtb #2
  a0:	07120111 	.inst	0x07120111 ; undefined
  a4:	42961840 	.inst	0x42961840 ; undefined
  a8:	0d000019 	st1	{v25.b}[0], [x0]
  ac:	193f012e 	.inst	0x193f012e ; undefined
  b0:	0b3a0e03 	add	w3, w16, w26, uxtb #3
  b4:	19270b3b 	.inst	0x19270b3b ; undefined
  b8:	07120111 	.inst	0x07120111 ; undefined
  bc:	42961840 	.inst	0x42961840 ; undefined
  c0:	00130119 	.inst	0x00130119 ; undefined
  c4:	00050e00 	.inst	0x00050e00 ; undefined
  c8:	0b3a0803 	add	w3, w0, w26, uxtb #2
  cc:	13490b3b 	.inst	0x13490b3b ; undefined
  d0:	00001802 	.inst	0x00001802 ; undefined
  d4:	0300050f 	.inst	0x0300050f ; undefined
  d8:	3b0b3a0e 	.inst	0x3b0b3a0e ; undefined
  dc:	0213490b 	.inst	0x0213490b ; undefined
  e0:	10000018 	adr	x24, e0 <_main-0x3fffff20>
  e4:	00000018 	.inst	0x00000018 ; undefined
  e8:	03003411 	.inst	0x03003411 ; undefined
  ec:	3b0b3a0e 	.inst	0x3b0b3a0e ; undefined
  f0:	0213490b 	.inst	0x0213490b ; undefined
  f4:	12000018 	and	w24, w0, #0x1
  f8:	08030034 	stxrb	w3, w20, [x1]
  fc:	0b3b0b3a 	add	w26, w25, w27, uxtb #2
 100:	18021349 	ldr	w9, 4368 <_main-0x3fffbc98>
 104:	0b130000 	add	w0, w0, w19
 108:	12011101 	and	w1, w8, #0x8000000f
 10c:	14000007 	b	128 <_main-0x3ffffed8>
 110:	13490101 	.inst	0x13490101 ; undefined
 114:	00001301 	.inst	0x00001301 ; undefined
 118:	49002115 	.inst	0x49002115 ; undefined
 11c:	000b2f13 	.inst	0x000b2f13 ; undefined
 120:	012e1600 	.inst	0x012e1600 ; undefined
 124:	0e03193f 	uzp1	v31.8b, v9.8b, v3.8b
 128:	0b3b0b3a 	add	w26, w25, w27, uxtb #2
 12c:	13491927 	.inst	0x13491927 ; undefined
 130:	07120111 	.inst	0x07120111 ; undefined
 134:	42961840 	.inst	0x42961840 ; undefined
 138:	00130119 	.inst	0x00130119 ; undefined
 13c:	012e1700 	.inst	0x012e1700 ; undefined
 140:	0e03193f 	uzp1	v31.8b, v9.8b, v3.8b
 144:	0b3b0b3a 	add	w26, w25, w27, uxtb #2
 148:	01111927 	.inst	0x01111927 ; undefined
 14c:	18400712 	ldr	w18, 8022c <_main-0x3ff7fdd4>
 150:	01194297 	.inst	0x01194297 ; undefined
 154:	18000013 	ldr	w19, 154 <_main-0x3ffffeac>
 158:	193f012e 	.inst	0x193f012e ; undefined
 15c:	0b3a0e03 	add	w3, w16, w26, uxtb #3
 160:	19270b3b 	.inst	0x19270b3b ; undefined
 164:	01111349 	.inst	0x01111349 ; undefined
 168:	18400712 	ldr	w18, 80248 <_main-0x3ff7fdb8>
 16c:	01194297 	.inst	0x01194297 ; undefined
 170:	19000013 	.inst	0x19000013 ; undefined
 174:	193f012e 	.inst	0x193f012e ; undefined
 178:	0b3a0e03 	add	w3, w16, w26, uxtb #3
 17c:	19270b3b 	.inst	0x19270b3b ; undefined
 180:	07120111 	.inst	0x07120111 ; undefined
 184:	42971840 	.inst	0x42971840 ; undefined
 188:	00000019 	.inst	0x00000019 ; undefined

Disassembly of section .debug_aranges:

0000000000000000 <.debug_aranges>:
   0:	0000002c 	.inst	0x0000002c ; undefined
   4:	00000002 	.inst	0x00000002 ; undefined
   8:	00080000 	.inst	0x00080000 ; undefined
   c:	00000000 	.inst	0x00000000 ; undefined
  10:	40000000 	.inst	0x40000000 ; undefined
  14:	00000000 	.inst	0x00000000 ; undefined
  18:	00000870 	.inst	0x00000870 ; undefined
	...
  30:	0000002c 	.inst	0x0000002c ; undefined
  34:	003c0002 	.inst	0x003c0002 ; NYI
  38:	00080000 	.inst	0x00080000 ; undefined
  3c:	00000000 	.inst	0x00000000 ; undefined
  40:	40000870 	.inst	0x40000870 ; undefined
  44:	00000000 	.inst	0x00000000 ; undefined
  48:	00000a90 	.inst	0x00000a90 ; undefined
	...

Disassembly of section .debug_str:

0000000000000000 <.debug_str>:
   0:	7270736b 	.inst	0x7270736b ; undefined
   4:	66746e69 	.inst	0x66746e69 ; undefined
   8:	616d6b00 	.inst	0x616d6b00 ; undefined
   c:	5f006e69 	.inst	0x5f006e69 ; undefined
  10:	6c6f6f42 	ldnp	d2, d27, [x26, #-272]
  14:	746d6600 	.inst	0x746d6600 ; undefined
  18:	00667562 	.inst	0x00667562 ; undefined
  1c:	746e6d2f 	.inst	0x746e6d2f ; undefined
  20:	6e696b00 	.inst	0x6e696b00 ; undefined
  24:	72726574 	.inst	0x72726574 ; undefined
  28:	00747075 	.inst	0x00747075 ; undefined
  2c:	72617473 	.inst	0x72617473 ; undefined
  30:	41550074 	.inst	0x41550074 ; undefined
  34:	44305452 	.inst	0x44305452 ; undefined
  38:	5f5f0052 	.inst	0x5f5f0052 ; undefined
  3c:	63756e67 	.inst	0x63756e67 ; undefined
  40:	5f61765f 	sqshl	d31, d18, #33
  44:	7473696c 	.inst	0x7473696c ; undefined
  48:	736e7500 	.inst	0x736e7500 ; undefined
  4c:	656e6769 	fnmls	z9.h, p1/m, z27.h, z14.h
  50:	68632064 	.inst	0x68632064 ; undefined
  54:	72007261 	ands	w1, w19, #0x1fffffff
  58:	72657665 	.inst	0x72657665 ; undefined
  5c:	69006573 	.inst	0x69006573 ; undefined
  60:	00686f74 	.inst	0x00686f74 ; undefined
  64:	676e6f6c 	.inst	0x676e6f6c ; undefined
  68:	736e7520 	.inst	0x736e7520 ; undefined
  6c:	656e6769 	fnmls	z9.h, p1/m, z27.h, z14.h
  70:	6e692064 	usubl2	v4.4s, v3.8h, v9.8h
  74:	65740074 	fmla	z20.h, p0/m, z3.h, z20.h
  78:	7300706d 	.inst	0x7300706d ; undefined
  7c:	74726f68 	.inst	0x74726f68 ; undefined
  80:	736e7520 	.inst	0x736e7520 ; undefined
  84:	656e6769 	fnmls	z9.h, p1/m, z27.h, z14.h
  88:	6e692064 	usubl2	v4.4s, v3.8h, v9.8h
  8c:	706b0074 	adr	x20, d609b <_main-0x3ff29f65>
  90:	00737475 	.inst	0x00737475 ; undefined
  94:	616f7469 	.inst	0x616f7469 ; undefined
  98:	726f6600 	.inst	0x726f6600 ; undefined
  9c:	0074616d 	.inst	0x0074616d ; undefined
  a0:	72675f5f 	.inst	0x72675f5f ; undefined
  a4:	66666f5f 	.inst	0x66666f5f ; undefined
  a8:	61620073 	.inst	0x61620073 ; undefined
  ac:	5f006573 	.inst	0x5f006573 ; undefined
  b0:	6972706b 	ldpsw	x11, x28, [x3, #-112]
  b4:	0066746e 	.inst	0x0066746e ; undefined
  b8:	20554e47 	.inst	0x20554e47 ; undefined
  bc:	20393943 	.inst	0x20393943 ; undefined
  c0:	2e322e37 	uqsub	v23.8b, v17.8b, v18.8b
  c4:	30322031 	adr	x17, 644c9 <_main-0x3ff9bb37>
  c8:	30313731 	adr	x17, 627ad <_main-0x3ff9d853>
  cc:	2d203131 	stp	s17, s12, [x9, #-256]
  d0:	6372616d 	.inst	0x6372616d ; undefined
  d4:	72613d68 	.inst	0x72613d68 ; undefined
  d8:	2d38766d 	stp	s13, s29, [x19, #-64]
  dc:	6d2d2061 	stp	d1, d8, [x3, #-304]
  e0:	7474696c 	.inst	0x7474696c ; undefined
  e4:	652d656c 	.inst	0x652d656c ; undefined
  e8:	6169646e 	.inst	0x6169646e ; undefined
  ec:	6d2d206e 	stp	d14, d8, [x3, #-304]
  f0:	3d696261 	ldr	b1, [x19, #2648]
  f4:	3436706c 	cbz	w12, 6cf00 <_main-0x3ff93100>
  f8:	20672d20 	.inst	0x20672d20 ; undefined
  fc:	6474732d 	.inst	0x6474732d ; undefined
 100:	756e673d 	.inst	0x756e673d ; undefined
 104:	2d203939 	stp	s25, s14, [x9, #-256]
 108:	65726666 	fnmls	z6.h, p1/m, z19.h, z18.h
 10c:	61747365 	.inst	0x61747365 ; undefined
 110:	6e69646e 	umax	v14.8h, v3.8h, v9.8h
 114:	5f5f0067 	.inst	0x5f5f0067 ; undefined
 118:	745f7267 	.inst	0x745f7267 ; undefined
 11c:	5f00706f 	.inst	0x5f00706f ; undefined
 120:	5f61765f 	sqshl	d31, d18, #33
 124:	7473696c 	.inst	0x7473696c ; undefined
 128:	765f5f00 	.inst	0x765f5f00 ; undefined
 12c:	666f5f72 	.inst	0x666f5f72 ; undefined
 130:	6d007366 	stp	d6, d28, [x27]
 134:	2e6e6961 	.inst	0x2e6e6961 ; undefined
 138:	74690063 	.inst	0x74690063 ; undefined
 13c:	6d5f686f 	ldp	d15, d26, [x3, #496]
 140:	61007061 	.inst	0x61007061 ; undefined
 144:	00706772 	.inst	0x00706772 ; undefined
 148:	726f6873 	.inst	0x726f6873 ; undefined
 14c:	6e692074 	usubl2	v20.4s, v3.8h, v9.8h
 150:	5f5f0074 	.inst	0x5f5f0074 ; undefined
 154:	745f7276 	.inst	0x745f7276 ; undefined
 158:	6900706f 	.inst	0x6900706f ; undefined
 15c:	67654e73 	.inst	0x67654e73 ; undefined
 160:	76697461 	.inst	0x76697461 ; undefined
 164:	6f6c0065 	mla	v5.8h, v3.8h, v12.h[2]
 168:	6920676e 	.inst	0x6920676e ; undefined
 16c:	6b00746e 	subs	w14, w3, w0, lsl #29
 170:	63747570 	.inst	0x63747570 ; undefined
 174:	735f5f00 	.inst	0x735f5f00 ; undefined
 178:	6b636174 	.inst	0x6b636174 ; undefined
 17c:	6e656c00 	umin	v0.8h, v0.8h, v5.8h
 180:	00687467 	.inst	0x00687467 ; undefined

Disassembly of section .comment:

0000000000000000 <.comment>:
   0:	3a434347 	ccmn	w26, w3, #0x7, mi  // mi = first
   4:	694c2820 	ldpsw	x0, x10, [x1, #96]
   8:	6f72616e 	umlsl2	v14.4s, v11.8h, v2.h[3]
   c:	43434720 	.inst	0x43434720 ; undefined
  10:	322e3720 	orr	w0, w25, #0xfffc0000
  14:	3130322d 	adds	w13, w17, #0xc0c
  18:	31312e37 	adds	w23, w17, #0xc4b
  1c:	2e372029 	usubl	v9.8h, v1.8b, v23.8b
  20:	20312e32 	.inst	0x20312e32 ; undefined
  24:	37313032 	tbnz	w18, #6, 2628 <_main-0x3fffd9d8>
  28:	31313031 	adds	w17, w1, #0xc4c
	...

Disassembly of section .debug_frame:

0000000000000000 <.debug_frame>:
   0:	0000000c 	.inst	0x0000000c ; undefined
   4:	ffffffff 	.inst	0xffffffff ; undefined
   8:	78040001 	sturh	w1, [x0, #64]
   c:	001f0c1e 	.inst	0x001f0c1e ; undefined
  10:	0000001c 	.word	0x0000001c
  14:	00000000 	.word	0x00000000
  18:	40000870 	.word	0x40000870
  1c:	00000000 	.word	0x00000000
  20:	00000020 	.word	0x00000020
  24:	00000000 	.word	0x00000000
  28:	46100e41 	.word	0x46100e41
  2c:	0000000e 	.word	0x0000000e
  30:	00000024 	.word	0x00000024
  34:	00000000 	.word	0x00000000
  38:	40000890 	.word	0x40000890
  3c:	00000000 	.word	0x00000000
  40:	00000044 	.word	0x00000044
  44:	00000000 	.word	0x00000000
  48:	9d200e41 	.word	0x9d200e41
  4c:	41039e04 	.word	0x41039e04
  50:	de4e1d0d 	.word	0xde4e1d0d
  54:	001f0cdd 	.word	0x001f0cdd
  58:	0000001c 	.word	0x0000001c
  5c:	00000000 	.word	0x00000000
  60:	400008d4 	.word	0x400008d4
  64:	00000000 	.word	0x00000000
  68:	000000a8 	.word	0x000000a8
  6c:	00000000 	.word	0x00000000
  70:	68300e41 	.word	0x68300e41
  74:	0000000e 	.word	0x0000000e
  78:	0000001c 	.word	0x0000001c
  7c:	00000000 	.word	0x00000000
  80:	4000097c 	.word	0x4000097c
  84:	00000000 	.word	0x00000000
  88:	0000009c 	.word	0x0000009c
  8c:	00000000 	.word	0x00000000
  90:	65200e41 	.word	0x65200e41
  94:	0000000e 	.word	0x0000000e
  98:	0000002c 	.word	0x0000002c
  9c:	00000000 	.word	0x00000000
  a0:	40000a18 	.word	0x40000a18
  a4:	00000000 	.word	0x00000000
  a8:	00000168 	.word	0x00000168
  ac:	00000000 	.word	0x00000000
  b0:	9d300e41 	.word	0x9d300e41
  b4:	41059e06 	.word	0x41059e06
  b8:	57021d0d 	.word	0x57021d0d
  bc:	1f0cddde 	.word	0x1f0cddde
	...
  c8:	0000002c 	.word	0x0000002c
  cc:	00000000 	.word	0x00000000
  d0:	40000b80 	.word	0x40000b80
  d4:	00000000 	.word	0x00000000
  d8:	00000600 	.word	0x00000600
  dc:	00000000 	.word	0x00000000
  e0:	03800e41 	.word	0x03800e41
  e4:	2f9e309d 	.word	0x2f9e309d
  e8:	031d0d41 	.word	0x031d0d41
  ec:	ddde017d 	.word	0xddde017d
  f0:	00001f0c 	.word	0x00001f0c
  f4:	00000000 	.word	0x00000000
  f8:	0000002c 	.word	0x0000002c
  fc:	00000000 	.word	0x00000000
 100:	40001180 	.word	0x40001180
 104:	00000000 	.word	0x00000000
 108:	00000090 	.word	0x00000090
 10c:	00000000 	.word	0x00000000
 110:	02800e41 	.word	0x02800e41
 114:	1f9e209d 	.word	0x1f9e209d
 118:	611d0d41 	.word	0x611d0d41
 11c:	1f0cddde 	.word	0x1f0cddde
	...
 128:	0000002c 	.word	0x0000002c
 12c:	00000000 	.word	0x00000000
 130:	40001210 	.word	0x40001210
 134:	00000000 	.word	0x00000000
 138:	00000090 	.word	0x00000090
 13c:	00000000 	.word	0x00000000
 140:	01f00e41 	.word	0x01f00e41
 144:	1d9e1e9d 	.word	0x1d9e1e9d
 148:	611d0d41 	.word	0x611d0d41
 14c:	1f0cddde 	.word	0x1f0cddde
	...
 158:	00000024 	.word	0x00000024
 15c:	00000000 	.word	0x00000000
 160:	400012a0 	.word	0x400012a0
 164:	00000000 	.word	0x00000000
 168:	00000040 	.word	0x00000040
 16c:	00000000 	.word	0x00000000
 170:	9d100e41 	.word	0x9d100e41
 174:	41019e02 	.word	0x41019e02
 178:	de4d1d0d 	.word	0xde4d1d0d
 17c:	001f0cdd 	.word	0x001f0cdd
 180:	00000024 	.word	0x00000024
 184:	00000000 	.word	0x00000000
 188:	400012e0 	.word	0x400012e0
 18c:	00000000 	.word	0x00000000
 190:	00000020 	.word	0x00000020
 194:	00000000 	.word	0x00000000
 198:	9d100e41 	.word	0x9d100e41
 19c:	41019e02 	.word	0x41019e02
 1a0:	de451d0d 	.word	0xde451d0d
 1a4:	001f0cdd 	.word	0x001f0cdd
